 dc.l $01000000, $00000200, $000027da, $000027e4, $000027ee, $00002802
 dc.l $0000280c, $00002816, $00002820, $0000282a, $00002834, $0000283e
 dc.l $00000200, $00000200, $00000200, $00000200, $00000200, $00000200
 dc.l $00000200, $00000200, $00000200, $00000200, $00000200, $00000200
 dc.l $00000200, $00000200, $00000416, $00000200, $00000396, $00000200
 dc.l $000003d8, $00000200, $00002766, $00002848, $00002852, $0000285c
 dc.l $00002866, $00002870, $0000287a, $00002884, $0000288e, $00002898
 dc.l $000028a2, $000028ac, $000028b6, $000028c0, $000028ca, $000028d4
 dc.l $00000200, $00000200, $00000200, $00000200, $00000200, $00000200
 dc.l $00000200, $00000200, $00000200, $00000200, $00000200, $00000200
 dc.l $00000200, $00000200, $00000200, $00000200
 dc.b 'SEGA GENESIS    (C)SEGA 2003.DEC'
 dc.b '                                                '
 dc.b 'BasiEgaXorz Game                                '
 dc.b 'GM MK-0000 -00'
 dc.w $0000
 dc.b 'J               '
 dc.l $00000000, $003fffff, $00e00000, $00ffffff
 dc.b '  '
 dc.b $20,$20
 dc.l $20202020, $20202020
 dc.b '            '
 dc.b '                                        '
 dc.b 'JUE             '
 #START
 46FC 2700                        MOVE      #$2700,SR
 1039 00A10001                    MOVE.B    $00A10001,D0
 0200 000F                        AND.B     #$0F,D0
 670A                             BEQ       $0000021A
 23FC 53454741 00A14000           MOVE.L    #$53454741,$00A14000
 4EF9 0000029C                    JMP       $0000029C
 46FC 2700                        MOVE      #$2700,SR
 2F3C 000028DE                    MOVE.L    #$000028DE,-(A7)
 4EF9 0000029C                    JMP       $0000029C
 8000                             OR.B      D0,D0
 3FFF                             MOVE.W    ,
 0100                             BTST      D0,D0
 00A0 000000A1                    OR.L      #$000000A1,-(A0)
 1100                             MOVE.B    D0,-(A0)
 00A1 120000C0                    OR.L      #$120000C0,-(A1)
 0000 00C0                        OR.B      #$C0,D0
 0004 0414                        OR.B      #$14,D4
 302C 0754                        MOVE.W    $0754(A4),D0
 0000 0000                        OR.B      #$00,D0
 0000 812B                        OR.B      #$2B,D0
 0001 0100                        OR.B      #$00,D1
 00FF                             Invalid
 FF00                             Invalid
 0080 40000080                    OR.L      #$40000080,D0
 AF01                             Invalid
 D91F                             Invalid
 1127                             MOVE.B    -(A7),-(A0)
 0021 2600                        OR.B      #$00,-(A1)
 F977                             Invalid
 EDB0                             ROXL.L    D6,D0
 DDE1                             ADD.L     -(A1),A6
 FDE1                             Invalid
 ED47                             ASL.W     #6,D7
 ED4F                             LSL.W     #6,D7
 D1E1                             ADD.L     -(A1),A0
 F108                             Invalid
 D9C1                             ADD.L     D1,A4
 D1E1                             ADD.L     -(A1),A0
 F1F9                             Invalid
 F3ED                             Invalid
 5636 E9E9                        ADDQ.B    #$3,$E9(A6,A4.W)
 8104                             Invalid
 8F01                             Invalid
 C000                             AND.B     D0,D0
 0000 4000                        OR.B      #$00,D0
 0010 9FBF                        OR.B      #$BF,(A0)
 DFFF                             ADD.L     ,A7
 33FC 0100 00A11200               MOVE.W    #$0100,$00A11200
 33FC 0100 00A11100               MOVE.W    #$0100,$00A11100
 0839 0000 00A11100               BTST      #$00,$00A11100
 66F6                             BNE       $000002AC
 43F9 00FF0000                    LEA       $00FF0000,A1
 203C 000037FF                    MOVE.L    #$000037FF,D0
 4299                             CLR.L     (A1)+
 51C8 FFFC                        DBRA      D0,$000002C2
 43F9 00A00000                    LEA       $00A00000,A1
 45F9 0000045C                    LEA       $0000045C,A2
 203C 0000000F                    MOVE.L    #$0000000F,D0
 12DA                             MOVE.B    (A2)+,(A1)+
 51C8 FFFC                        DBRA      D0,$000002DA
 4CF9 7FFF 00FF0000               MOVEM.L   $00FF0000,D0-D7/A0-A6
 2E78 0000                        MOVE.L    $0000,A7
 2F3C 000028DE                    MOVE.L    #$000028DE,-(A7)
 4EB9 0000046C                    JSR       $0000046C
 4EF9 00002F12                    JMP       $00002F12
 46FC 2700                        MOVE      #$2700,SR
 31FC 60FE FFAA                   MOVE.W    #$60FE,$FFAA
 1039 00FF0034                    MOVE.B    $00FF0034,D0
 0200 0003                        AND.B     #$03,D0
 5300                             SUBQ.B    #$1,D0
 6724                             BEQ       $0000033A
 5300                             SUBQ.B    #$1,D0
 6734                             BEQ       $0000034E
 5300                             SUBQ.B    #$1,D0
 6744                             BEQ       $00000362
 0239 00EF 00FF0016               AND.B     #$EF,$00FF0016
 303C 8000                        MOVE.W    #$8000,D0
 D039 00FF0016                    ADD.B     $00FF0016,D0
 3940 0004                        MOVE.W    D0,$0004(A4)
 46FC 2000                        MOVE      #$2000,SR
 4E75                             RTS
 207C 000003D0                    MOVE.L    #$000003D0,A0
 327C FFAC                        MOVE.W    #$FFAC,A1
 7022                             MOVEQ     #$22,D0
 32D8                             MOVE.W    (A0)+,(A1)+
 51C8 FFFC                        DBRA      D0,$00000346
 602C                             BRA       $0000037A
 207C 00000396                    MOVE.L    #$00000396,A0
 327C FFAC                        MOVE.W    #$FFAC,A1
 701C                             MOVEQ     #$1C,D0
 32D8                             MOVE.W    (A0)+,(A1)+
 51C8 FFFC                        DBRA      D0,$0000035A
 6018                             BRA       $0000037A
 207C 00000396                    MOVE.L    #$00000396,A0
 327C FF72                        MOVE.W    #$FF72,A1
 703E                             MOVEQ     #$3E,D0
 32D8                             MOVE.W    (A0)+,(A1)+
 51C8 FFFC                        DBRA      D0,$0000036E
 31FC 67BE FFB4                   MOVE.W    #$67BE,$FFB4
 0039 0010 00FF0016               OR.B      #$10,$00FF0016
 303C 8000                        MOVE.W    #$8000,D0
 D039 00FF0016                    ADD.B     $00FF0016,D0
 3940 0004                        MOVE.W    D0,$0004(A4)
 46FC 2000                        MOVE      #$2000,SR
 4E75                             RTS
 48E7 FFFC                        MOVEM.L   D0-D7/A0-A5,-(A7)
 303C 8000                        MOVE.W    #$8000,D0
 D039 00FF0016                    ADD.B     $00FF0016,D0
 3F00                             MOVE.W    D0,-(A7)
 0240 FFEF                        AND.W     #$FFEF,D0
 3940 0004                        MOVE.W    D0,$0004(A4)
 4BED 0001                        LEA       $0001(A5),A5
 200D                             MOVE.L    A5,D0
 0280 FFFFFFFE                    AND.L     #$FFFFFFFE,D0
 2A40                             MOVE.L    D0,A5
 264D                             MOVE.L    A5,A3
 2079 00FF0012                    MOVE.L    $00FF0012,A0
 4E90                             JSR       (A0)
 395F 0004                        MOVE.W    (A7)+,$0004(A4)
 4CDF 3FFF                        MOVEM.L   (A7)+,D0-D7/A0-A5
 4E73                             RTE
 082C 0003 0005                   BTST      #$03,$0005(A4)
 673C                             BEQ       $00000414
 48E7 FFFC                        MOVEM.L   D0-D7/A0-A5,-(A7)
 303C 8100                        MOVE.W    #$8100,D0
 D039 00FF0017                    ADD.B     $00FF0017,D0
 3F00                             MOVE.W    D0,-(A7)
 0240 FFDF                        AND.W     #$FFDF,D0
 3940 0004                        MOVE.W    D0,$0004(A4)
 4BED 0001                        LEA       $0001(A5),A5
 200D                             MOVE.L    A5,D0
 0280 FFFFFFFE                    AND.L     #$FFFFFFFE,D0
 2A40                             MOVE.L    D0,A5
 264D                             MOVE.L    A5,A3
 2079 00FF0006                    MOVE.L    $00FF0006,A0
 4E90                             JSR       (A0)
 395F 0004                        MOVE.W    (A7)+,$0004(A4)
 46FC 2700                        MOVE      #$2700,SR
 4CDF 3FFF                        MOVEM.L   (A7)+,D0-D7/A0-A5
 4E73                             RTE
 4AB9 00FF0026                    TST.L     $00FF0026
 6600 0004                        BNE       $00000422(pc)
 4E73                             RTE
 48E7 FFFC                        MOVEM.L   D0-D7/A0-A5,-(A7)
 303C 8B00                        MOVE.W    #$8B00,D0
 D039 00FF0018                    ADD.B     $00FF0018,D0
 3F00                             MOVE.W    D0,-(A7)
 0200 00F7                        AND.B     #$F7,D0
 3940 0004                        MOVE.W    D0,$0004(A4)
 4BED 0001                        LEA       $0001(A5),A5
 200D                             MOVE.L    A5,D0
 0280 FFFFFFFE                    AND.L     #$FFFFFFFE,D0
 2A40                             MOVE.L    D0,A5
 264D                             MOVE.L    A5,A3
 2079 00FF0026                    MOVE.L    $00FF0026,A0
 4E90                             JSR       (A0)
 395F 0004                        MOVE.W    (A7)+,$0004(A4)
 4CDF 3FFF                        MOVEM.L   (A7)+,D0-D7/A0-A5
 4E73                             RTE
 F3ED                             Invalid
 5631 0020                        ADDQ.B    #$3,$00(A1,D0.W)
 C380                             Invalid
 0000 0000                        OR.B      #$00,D0
 0000 0000                        OR.B      #$00,D0
 41F9 00C00000                    LEA       $00C00000,A0
 43F9 00C00004                    LEA       $00C00004,A1
 3011                             MOVE.W    (A1),D0
 32BC 8004                        MOVE.W    #$8004,(A1)
 32BC 8104                        MOVE.W    #$8104,(A1)
 32BC 8210                        MOVE.W    #$8210,(A1)
 32BC 8314                        MOVE.W    #$8314,(A1)
 32BC 8403                        MOVE.W    #$8403,(A1)
 32BC 853C                        MOVE.W    #$853C,(A1)
 32BC 8600                        MOVE.W    #$8600,(A1)
 32BC 8700                        MOVE.W    #$8700,(A1)
 32BC 8800                        MOVE.W    #$8800,(A1)
 32BC 8900                        MOVE.W    #$8900,(A1)
 32BC 8AFF                        MOVE.W    #$8AFF,(A1)
 32BC 8B00                        MOVE.W    #$8B00,(A1)
 32BC 8C81                        MOVE.W    #$8C81,(A1)
 32BC 8D1C                        MOVE.W    #$8D1C,(A1)
 32BC 8E00                        MOVE.W    #$8E00,(A1)
 32BC 8F02                        MOVE.W    #$8F02,(A1)
 32BC 9001                        MOVE.W    #$9001,(A1)
 32BC 9100                        MOVE.W    #$9100,(A1)
 32BC 9200                        MOVE.W    #$9200,(A1)
 32BC 9300                        MOVE.W    #$9300,(A1)
 32BC 9400                        MOVE.W    #$9400,(A1)
 32BC 9500                        MOVE.W    #$9500,(A1)
 32BC 9600                        MOVE.W    #$9600,(A1)
 22BC 40000000                    MOVE.L    #$40000000,(A1)
 203C 00003FFF                    MOVE.L    #$00003FFF,D0
 20BC 00000000                    MOVE.L    #$00000000,(A0)
 51C8 FFF8                        DBRA      D0,$000004E2
 22BC C0000000                    MOVE.L    #$C0000000,(A1)
 203C 0000001F                    MOVE.L    #$0000001F,D0
 20BC 00000000                    MOVE.L    #$00000000,(A0)
 51C8 FFF8                        DBRA      D0,$000004F8
 22BC 40000010                    MOVE.L    #$40000010,(A1)
 203C 0000001F                    MOVE.L    #$0000001F,D0
 20BC 00000000                    MOVE.L    #$00000000,(A0)
 51C8 FFF8                        DBRA      D0,$0000050E
 4E75                             RTS
 0000 0777                        OR.B      #$77,D0
 0000 0000                        OR.B      #$00,D0
 0000 0000                        OR.B      #$00,D0
 0000 0000                        OR.B      #$00,D0
 0000 0000                        OR.B      #$00,D0
 0000 0000                        OR.B      #$00,D0
 0000 0000                        OR.B      #$00,D0
 0000 0000                        OR.B      #$00,D0
 0000 0770                        OR.B      #$70,D0
 0000 0000                        OR.B      #$00,D0
 0000 0000                        OR.B      #$00,D0
 0000 0000                        OR.B      #$00,D0
 0000 0000                        OR.B      #$00,D0
 0000 0000                        OR.B      #$00,D0
 0000 0000                        OR.B      #$00,D0
 0000 0000                        OR.B      #$00,D0
 0000 0070                        OR.B      #$70,D0
 0000 0000                        OR.B      #$00,D0
 0000 0000                        OR.B      #$00,D0
 0000 0000                        OR.B      #$00,D0
 0000 0000                        OR.B      #$00,D0
 0000 0000                        OR.B      #$00,D0
 0000 0000                        OR.B      #$00,D0
 0000 0000                        OR.B      #$00,D0
 0000 0707                        OR.B      #$07,D0
 0000 0000                        OR.B      #$00,D0
 0000 0000                        OR.B      #$00,D0
 0000 0000                        OR.B      #$00,D0
 0000 0000                        OR.B      #$00,D0
 0000 0000                        OR.B      #$00,D0
 0000 0000                        OR.B      #$00,D0
 0000 0000                        OR.B      #$00,D0
 0000 0000                        OR.B      #$00,D0
 0000 0000                        OR.B      #$00,D0
 7E81                             MOVEQ     #$81,D7
 A581                             Invalid
 BD99                             Invalid
 817E                             Invalid
 7EFF                             MOVEQ     #$FF,D7
 DBFF                             ADD.L     ,A5
 C3E7                             MULS      -(A7),D1
 FF7E                             Invalid
 6CFE                             BGE       $000005B2
 FEFE                             Invalid
 7C38                             MOVEQ     #$38,D6
 1000                             MOVE.B    D0,D0
 1038 7CFE                        MOVE.B    $7CFE,D0
 7C38                             MOVEQ     #$38,D6
 1000                             MOVE.B    D0,D0
 387C 38FE                        MOVE.W    #$38FE,A4
 FE7C                             Invalid
 387C 1010                        MOVE.W    #$1010,A4
 387C FE7C                        MOVE.W    #$FE7C,A4
 387C 0000                        MOVE.W    #$0000,A4
 183C 3C18                        MOVE.B    #$18,D4
 0000 FFFF                        OR.B      #$FF,D0
 E7C3                             ROL       D3
 C3E7                             MULS      -(A7),D1
 FFFF                             Invalid
 003C 6642                        OR.B      #$42,CCR
 4266                             CLR.W     -(A6)
 3C00                             MOVE.W    D0,D6
 FFC3                             Invalid
 99BD                             Invalid
 BD99                             Invalid
 C3FF                             MULS      ,D1
 0F07                             BTST      D7,D7
 0F7D                             BCHG      D7,
 CCCC                             MULU      A4,D6
 CC78 3C66                        AND.W     $3C66,D6
 6666                             BNE       $00000664
 3C18                             MOVE.W    (A0)+,D6
 7E18                             MOVEQ     #$18,D7
 3F33 3F30                        MOVE.W    $3F(A3,D0.L),-(A7)
 3070 F0E0                        MOVE.W    $F0(A0,D0.W),A0
 7F63                             MOVEQ     #$63,D7
 7F63                             MOVEQ     #$63,D7
 6367                             BLS       $00000677
 E6C0                             ROR       D0
 995A                             Invalid
 3CE7                             MOVE.W    -(A7),(A6)+
 E73C                             ROL.B     D3,D4
 5A99                             ADDQ.L    #$5,(A1)+
 80E0                             DIVU      -(A0),D0
 F8FE                             Invalid
 F8E0                             Invalid
 8000                             OR.B      D0,D0
 020E 3EFE                        AND.B     #$FE,A6
 3E0E                             MOVE.W    A6,D7
 0200 183C                        AND.B     #$3C,D0
 7E18                             MOVEQ     #$18,D7
 187E                             MOVE.B    ,A4
 3C18                             MOVE.W    (A0)+,D6
 6666                             BNE       $0000069A
 6666                             BNE       $0000069C
 6600 6600                        BNE       $00006C38(pc)
 7FDB                             MOVEQ     #$DB,D7
 DB7B                             Invalid
 1B1B                             MOVE.B    (A3)+,-(A5)
 1B00                             MOVE.B    D0,-(A5)
 3E63                             MOVE.W    -(A3),A7
 386C 6C38                        MOVE.W    $6C38(A4),A4
 CC78 0000                        AND.W     $0000,D6
 0000 7E7E                        OR.B      #$7E,D0
 7E00                             MOVEQ     #$00,D7
 183C 7E18                        MOVE.B    #$18,D4
 7E3C                             MOVEQ     #$3C,D7
 18FF                             MOVE.B    ,(A4)+
 183C 7E18                        MOVE.B    #$18,D4
 1818                             MOVE.B    (A0)+,D4
 1800                             MOVE.B    D0,D4
 1818                             MOVE.B    (A0)+,D4
 1818                             MOVE.B    (A0)+,D4
 7E3C                             MOVEQ     #$3C,D7
 1800                             MOVE.B    D0,D4
 0018 0CFE                        OR.B      #$FE,(A0)+
 0C18 0000                        CMP.B     #$00,(A0)+
 0030 60FE 6030                   OR.B      #$FE,$60(A0,D0.L)
 0000 0000                        OR.B      #$00,D0
 C0C0                             MULU      D0,D0
 C0FE                             MULU      ,D0
 0000 0024                        OR.B      #$24,D0
 66FF                             BNE       $00000685
 6624                             BNE       $000006AC
 0000 0018                        OR.B      #$18,D0
 3C7E                             MOVE.W    ,A6
 FFFF                             Invalid
 0000 00FF                        OR.B      #$FF,D0
 FF7E                             Invalid
 3C18                             MOVE.W    (A0)+,D6
 0000 0000                        OR.B      #$00,D0
 0000 0000                        OR.B      #$00,D0
 0000 3030                        OR.B      #$30,D0
 3030 3000                        MOVE.W    $30(A0,D0.W),D0
 3000                             MOVE.W    D0,D0
 6C6C                             BGE       $00000718
 6C00 0000                        BGE       $000006AE(pc)
 0000 6C6C                        OR.B      #$6C,D0
 FE6C                             Invalid
 FE6C                             Invalid
 6C00 307C                        BGE       $00003736(pc)
 C078 0CF8                        AND.W     $0CF8,D0
 3000                             MOVE.W    D0,D0
 00C6                             Invalid
 CC18                             AND.B     (A0)+,D6
 3066                             MOVE.W    -(A6),A0
 C600                             AND.B     D0,D3
 386C 3876                        MOVE.W    $3876(A4),A4
 DCCC                             ADD.W     A4,A6
 7600                             MOVEQ     #$00,D3
 6060                             BRA       $00000734
 C000                             AND.B     D0,D0
 0000 0000                        OR.B      #$00,D0
 1830 6060                        MOVE.B    $60(A0,D0.W),D4
 6030                             BRA       $00000710
 1800                             MOVE.B    D0,D4
 6030                             BRA       $00000714
 1818                             MOVE.B    (A0)+,D4
 1830 6000                        MOVE.B    $60(A0,D0.W),D4
 0066 3CFF                        OR.W      #$3CFF,-(A6)
 3C66                             MOVE.W    -(A6),A6
 0000 0030                        OR.B      #$30,D0
 30FC 3030                        MOVE.W    #$3030,(A0)+
 0000 0000                        OR.B      #$00,D0
 0000 0030                        OR.B      #$30,D0
 3060                             MOVE.W    -(A0),A0
 0000 00FC                        OR.B      #$FC,D0
 0000 0000                        OR.B      #$00,D0
 0000 0000                        OR.B      #$00,D0
 0030 3000 060C                   OR.B      #$00,$06(A0,D6.W)
 1830 60C0                        MOVE.B    $60(A0,D0.W),D4
 8000                             OR.B      D0,D0
 7CC6                             MOVEQ     #$C6,D6
 CEDE                             MULU      (A6)+,D7
 F6E6                             Invalid
 7C00                             MOVEQ     #$00,D6
 3070 3030                        MOVE.W    $30(A0,D0.L),A0
 3030 FC00                        MOVE.W    $FC(A0,D0.W),D0
 78CC                             MOVEQ     #$CC,D4
 0C38 60CC FC00                   CMP.B     #$CC,$FC00
 78CC                             MOVEQ     #$CC,D4
 0C38 0CCC 7800                   CMP.B     #$CC,$7800
 1C3C 6CCC                        MOVE.B    #$CC,D6
 FE0C                             Invalid
 1E00                             MOVE.B    D0,D7
 FCC0                             Invalid
 F80C                             Invalid
 0CCC                             Invalid
 7800                             MOVEQ     #$00,D4
 3860                             MOVE.W    -(A0),A4
 C0F8 CCCC                        MULU      $CCCC,D0
 7800                             MOVEQ     #$00,D4
 FCCC                             Invalid
 0C18 3030                        CMP.B     #$30,(A0)+
 3000                             MOVE.W    D0,D0
 78CC                             MOVEQ     #$CC,D4
 CC78 CCCC                        AND.W     $CCCC,D6
 7800                             MOVEQ     #$00,D4
 78CC                             MOVEQ     #$CC,D4
 CC7C 0C18                        AND.W     #$0C18,D6
 7000                             MOVEQ     #$00,D0
 0030 3000 0030                   OR.B      #$00,$00(A0,D0.L)
 3000                             MOVE.W    D0,D0
 0030 3000 0030                   OR.B      #$00,$00(A0,D0.L)
 3060                             MOVE.W    -(A0),A0
 1830 60C0                        MOVE.B    $60(A0,D0.W),D4
 6030                             BRA       $000007B0
 1800                             MOVE.B    D0,D4
 0000 FC00                        OR.B      #$00,D0
 00FC                             Invalid
 0000 6030                        OR.B      #$30,D0
 180C                             MOVE.B    A4,D4
 1830 6000                        MOVE.B    $60(A0,D0.W),D4
 78CC                             MOVEQ     #$CC,D4
 0C18 3000                        CMP.B     #$00,(A0)+
 3000                             MOVE.W    D0,D0
 7CC6                             MOVEQ     #$C6,D6
 DEDE                             ADD.W     (A6)+,A7
 DEC0                             ADD.W     D0,A7
 7800                             MOVEQ     #$00,D4
 3078 CCCC                        MOVE.W    $CCCC,A0
 FCCC                             Invalid
 CC00                             AND.B     D0,D6
 FC66                             Invalid
 667C                             BNE       $0000082A
 6666                             BNE       $00000816
 FC00                             Invalid
 3C66                             MOVE.W    -(A6),A6
 C0C0                             MULU      D0,D0
 C066                             AND.W     -(A6),D0
 3C00                             MOVE.W    D0,D6
 F86C                             Invalid
 6666                             BNE       $00000824
 666C                             BNE       $0000082C
 F800                             Invalid
 7E60                             MOVEQ     #$60,D7
 6078                             BRA       $0000083E
 6060                             BRA       $00000828
 7E00                             MOVEQ     #$00,D7
 7E60                             MOVEQ     #$60,D7
 6078                             BRA       $00000846
 6060                             BRA       $00000830
 6000 3C66                        BRA       $00004438(pc)
 C0C0                             MULU      D0,D0
 CE66                             AND.W     -(A6),D7
 3E00                             MOVE.W    D0,D7
 CCCC                             MULU      A4,D6
 CCFC CCCC                        MULU      #$CCCC,D6
 CC00                             AND.B     D0,D6
 7830                             MOVEQ     #$30,D4
 3030 3030                        MOVE.W    $30(A0,D0.L),D0
 7800                             MOVEQ     #$00,D4
 1E0C                             MOVE.B    A4,D7
 0C0C CCCC                        CMP.B     #$CC,A4
 7800                             MOVEQ     #$00,D4
 E666                             ASR.W     D3,D6
 6C78                             BGE       $0000086E
 6C66                             BGE       $0000085E
 E600                             ASR.B     #3,D0
 6060                             BRA       $0000085C
 6060                             BRA       $0000085E
 6060                             BRA       $00000860
 7E00                             MOVEQ     #$00,D7
 C6EE FEFE                        MULU      -$0102(A6),D3
 D6C6                             ADD.W     D6,A3
 C600                             AND.B     D0,D3
 C6E6                             MULU      -(A6),D3
 F6DE                             Invalid
 CEC6                             MULU      D6,D7
 C600                             AND.B     D0,D3
 386C C6C6                        MOVE.W    -$393A(A4),A4
 C66C 3800                        AND.W     $3800(A4),D3
 FC66                             Invalid
 667C                             BNE       $0000089A
 6060                             BRA       $00000880
 F000                             Invalid
 78CC                             MOVEQ     #$CC,D4
 CCCC                             MULU      A4,D6
 DC78 1C00                        ADD.W     $1C00,D6
 FC66                             Invalid
 667C                             BNE       $000008AA
 6C66                             BGE       $00000896
 E600                             ASR.B     #3,D0
 78CC                             MOVEQ     #$CC,D4
 E078                             ROR.W     D0,D0
 1CCC                             MOVE.B    A4,(A6)+
 7800                             MOVEQ     #$00,D4
 FC30                             Invalid
 3030 3030                        MOVE.W    $30(A0,D0.L),D0
 3000                             MOVE.W    D0,D0
 CCCC                             MULU      A4,D6
 CCCC                             MULU      A4,D6
 CCCC                             MULU      A4,D6
 FC00                             Invalid
 CCCC                             MULU      A4,D6
 CCCC                             MULU      A4,D6
 CC78 3000                        AND.W     $3000,D6
 C6C6                             MULU      D6,D3
 C6D6                             MULU      (A6),D3
 FEEE                             Invalid
 C600                             AND.B     D0,D3
 C6C6                             MULU      D6,D3
 6C38                             BGE       $00000896
 386C C600                        MOVE.W    -$3A00(A4),A4
 CCCC                             MULU      A4,D6
 CC78 3030                        AND.W     $3030,D6
 7800                             MOVEQ     #$00,D4
 FE06                             Invalid
 0C18 3060                        CMP.B     #$60,(A0)+
 FE00                             Invalid
 7860                             MOVEQ     #$60,D4
 6060                             BRA       $000008D6
 6060                             BRA       $000008D8
 7800                             MOVEQ     #$00,D4
 C060                             AND.W     -(A0),D0
 3018                             MOVE.W    (A0)+,D0
 0C06 0200                        CMP.B     #$00,D6
 7818                             MOVEQ     #$18,D4
 1818                             MOVE.B    (A0)+,D4
 1818                             MOVE.B    (A0)+,D4
 7800                             MOVEQ     #$00,D4
 1038 6CC6                        MOVE.B    $6CC6,D0
 0000 0000                        OR.B      #$00,D0
 0000 0000                        OR.B      #$00,D0
 0000 00FF                        OR.B      #$FF,D0
 3030 1800                        MOVE.W    $18(A0,D0.W),D0
 0000 0000                        OR.B      #$00,D0
 0000 780C                        OR.B      #$0C,D0
 7CCC                             MOVEQ     #$CC,D6
 7600                             MOVEQ     #$00,D3
 E060                             ASR.W     D0,D0
 607C                             BRA       $0000092A
 6666                             BNE       $00000916
 DC00                             ADD.B     D0,D6
 0000 78CC                        OR.B      #$CC,D0
 C0CC                             MULU      A4,D0
 7800                             MOVEQ     #$00,D4
 1C0C                             MOVE.B    A4,D6
 0C7C CCCC                        CMP.W     #$CCCC,SR
 7600                             MOVEQ     #$00,D3
 0000 78CC                        OR.B      #$CC,D0
 FCC0                             Invalid
 7800                             MOVEQ     #$00,D4
 386C 60F0                        MOVE.W    $60F0(A4),A4
 6060                             BRA       $00000930
 F000                             Invalid
 0000 76CC                        OR.B      #$CC,D0
 CC7C 0CF8                        AND.W     #$0CF8,D6
 E060                             ASR.W     D0,D0
 6C76                             BGE       $00000954
 6666                             BNE       $00000946
 E600                             ASR.B     #3,D0
 3000                             MOVE.W    D0,D0
 7030                             MOVEQ     #$30,D0
 3030 7800                        MOVE.W    $78(A0,D0.W),D0
 0C00 0C0C                        CMP.B     #$0C,D0
 0CCC                             Invalid
 CC78 E060                        AND.W     $E060,D6
 666C                             BNE       $00000962
 786C                             MOVEQ     #$6C,D4
 E600                             ASR.B     #3,D0
 7030                             MOVEQ     #$30,D0
 3030 3030                        MOVE.W    $30(A0,D0.L),D0
 7800                             MOVEQ     #$00,D4
 0000 CCFE                        OR.B      #$FE,D0
 FED6                             Invalid
 C600                             AND.B     D0,D3
 0000 F8CC                        OR.B      #$CC,D0
 CCCC                             MULU      A4,D6
 CC00                             AND.B     D0,D6
 0000 78CC                        OR.B      #$CC,D0
 CCCC                             MULU      A4,D6
 7800                             MOVEQ     #$00,D4
 0000 DC66                        OR.B      #$66,D0
 667C                             BNE       $0000099C
 60F0                             BRA       $00000912
 0000 76CC                        OR.B      #$CC,D0
 CC7C 0C1E                        AND.W     #$0C1E,D6
 0000 DC76                        OR.B      #$76,D0
 6660                             BNE       $00000990
 F000                             Invalid
 0000 7CC0                        OR.B      #$C0,D0
 780C                             MOVEQ     #$0C,D4
 F800                             Invalid
 1030 7C30                        MOVE.B    $7C(A0,D0.L),D0
 3034 1800                        MOVE.W    $18(A4,D0.W),D0
 0000 CCCC                        OR.B      #$CC,D0
 CCCC                             MULU      A4,D6
 7600                             MOVEQ     #$00,D3
 0000 CCCC                        OR.B      #$CC,D0
 CC78 3000                        AND.W     $3000,D6
 0000 C6D6                        OR.B      #$D6,D0
 FEFE                             Invalid
 6C00 0000                        BGE       $0000095A(pc)
 C66C 386C                        AND.W     $386C(A4),D3
 C600                             AND.B     D0,D3
 0000 CCCC                        OR.B      #$CC,D0
 CC7C 0CF8                        AND.W     #$0CF8,D6
 0000 FC98                        OR.B      #$98,D0
 3064                             MOVE.W    -(A4),A0
 FC00                             Invalid
 1C30 30E0                        MOVE.B    $30(A0,D0.W),D6
 3030 1C00                        MOVE.W    $1C(A0,D0.W),D0
 1818                             MOVE.B    (A0)+,D4
 1800                             MOVE.B    D0,D4
 1818                             MOVE.B    (A0)+,D4
 1800                             MOVE.B    D0,D4
 E030                             ROXR.B    D0,D0
 301C                             MOVE.W    (A4)+,D0
 3030 E000                        MOVE.W    $E0(A0,D0.W),D0
 76DC                             MOVEQ     #$DC,D3
 0000 0000                        OR.B      #$00,D0
 0000 0010                        OR.B      #$10,D0
 386C C6FE                        MOVE.W    -$3902(A4),A4
 0000 3C66                        OR.B      #$66,D0
 C0C0                             MULU      D0,D0
 663C                             BNE       $000009DC
 0818 2800                        BTST      #$00,(A0)+
 CCCC                             MULU      A4,D6
 CCCC                             MULU      A4,D6
 7600                             MOVEQ     #$00,D3
 0810 78CC                        BTST      #$CC,(A0)
 FCC0                             Invalid
 7800                             MOVEQ     #$00,D4
 1028 780C                        MOVE.B    $780C(A0),D0
 7CCC                             MOVEQ     #$CC,D6
 7600                             MOVEQ     #$00,D3
 2800                             MOVE.L    D0,D4
 780C                             MOVEQ     #$0C,D4
 7CCC                             MOVEQ     #$CC,D6
 7600                             MOVEQ     #$00,D3
 2010                             MOVE.L    (A0),D0
 780C                             MOVEQ     #$0C,D4
 7CCC                             MOVEQ     #$CC,D6
 7600                             MOVEQ     #$00,D3
 1818                             MOVE.B    (A0)+,D4
 780C                             MOVEQ     #$0C,D4
 7CCC                             MOVEQ     #$CC,D6
 7600                             MOVEQ     #$00,D3
 0078 CCC0 CC78                   OR.W      #$CCC0,$CC78
 1030 1028                        MOVE.B    $10(A0,D4.W),D0
 78CC                             MOVEQ     #$CC,D4
 FCC0                             Invalid
 7800                             MOVEQ     #$00,D4
 2800                             MOVE.L    D0,D4
 78CC                             MOVEQ     #$CC,D4
 FCC0                             Invalid
 7800                             MOVEQ     #$00,D4
 2010                             MOVE.L    (A0),D0
 78CC                             MOVEQ     #$CC,D4
 FCC0                             Invalid
 7800                             MOVEQ     #$00,D4
 2800                             MOVE.L    D0,D4
 7030                             MOVEQ     #$30,D0
 3030 7800                        MOVE.W    $78(A0,D0.W),D0
 1028 7030                        MOVE.B    $7030(A0),D0
 3030 7800                        MOVE.W    $78(A0,D0.W),D0
 1008                             MOVE.B    A0,D0
 7030                             MOVEQ     #$30,D0
 3030 7800                        MOVE.W    $78(A0,D0.W),D0
 2830 78CC                        MOVE.L    $78(A0,D6.W),D4
 FCCC                             Invalid
 CC00                             AND.B     D0,D6
 3048                             MOVE.W    A0,A0
 30CC                             MOVE.W    A4,(A0)+
 FCCC                             Invalid
 CC00                             AND.B     D0,D6
 0810 7E60                        BTST      #$60,(A0)
 7860                             MOVEQ     #$60,D4
 7E00                             MOVEQ     #$00,D7
 0000 6C12                        OR.B      #$12,D0
 7E90                             MOVEQ     #$90,D7
 7E00                             MOVEQ     #$00,D7
 3E50                             MOVE.W    (A0),A7
 909C                             SUB.L     (A4)+,D0
 F090                             Invalid
 9E00                             SUB.B     D0,D7
 1028 78CC                        MOVE.B    $78CC(A0),D0
 CCCC                             MULU      A4,D6
 7800                             MOVEQ     #$00,D4
 2800                             MOVE.L    D0,D4
 78CC                             MOVEQ     #$CC,D4
 CCCC                             MULU      A4,D6
 7800                             MOVEQ     #$00,D4
 2010                             MOVE.L    (A0),D0
 78CC                             MOVEQ     #$CC,D4
 CCCC                             MULU      A4,D6
 7800                             MOVEQ     #$00,D4
 1028 CCCC                        MOVE.B    -$3334(A0),D0
 CCCC                             MULU      A4,D6
 7600                             MOVEQ     #$00,D3
 2010                             MOVE.L    (A0),D0
 CCCC                             MULU      A4,D6
 CCCC                             MULU      A4,D6
 7600                             MOVEQ     #$00,D3
 2800                             MOVE.L    D0,D4
 CCCC                             MULU      A4,D6
 CC7C 0CF8                        AND.W     #$0CF8,D6
 287C C6C6C6C6                    MOVE.L    #$C6C6C6C6,A4
 7C00                             MOVEQ     #$00,D6
 28C6                             MOVE.L    D6,(A4)+
 C6C6                             MULU      D6,D3
 C6C6                             MULU      D6,D3
 7C00                             MOVEQ     #$00,D6
 0010 78CC                        OR.B      #$CC,(A0)
 C0CC                             MULU      A4,D0
 7810                             MOVEQ     #$10,D4
 3844                             MOVE.W    D4,A4
 40F0 4040                        MOVE      SR,$40(A0,D0.W)
 FE00                             Invalid
 C366                             Invalid
 3C7E                             MOVE.W    ,A6
 187E                             MOVE.B    ,A4
 1800                             MOVE.B    D0,D4
 FC66                             Invalid
 667C                             BNE       $00000B0A
 6060                             BRA       $00000AF0
 F000                             Invalid
 1C30 FC30                        MOVE.B    $FC(A0,D0.L),D6
 3030 30E0                        MOVE.W    $30(A0,D0.W),D0
 0810 780C                        BTST      #$0C,(A0)
 7CCC                             MOVEQ     #$CC,D6
 7600                             MOVEQ     #$00,D3
 1020                             MOVE.B    -(A0),D0
 7030                             MOVEQ     #$30,D0
 3030 7800                        MOVE.W    $78(A0,D0.W),D0
 1020                             MOVE.B    -(A0),D0
 78CC                             MOVEQ     #$CC,D4
 CCCC                             MULU      A4,D6
 7800                             MOVEQ     #$00,D4
 1020                             MOVE.B    -(A0),D0
 CCCC                             MULU      A4,D6
 CCCC                             MULU      A4,D6
 7600                             MOVEQ     #$00,D3
 324C                             MOVE.W    A4,A1
 F8CC                             Invalid
 CCCC                             MULU      A4,D6
 CC00                             AND.B     D0,D6
 324C                             MOVE.W    A4,A1
 C6E6                             MULU      -(A6),D3
 D6CE                             ADD.W     A6,A3
 C600                             AND.B     D0,D3
 0038 0C3C 6C36                   OR.B      #$3C,$6C36
 0000 0038                        OR.B      #$38,D0
 4444                             NEG.W     D4
 3800                             MOVE.W    D0,D4
 0000 1800                        OR.B      #$00,D0
 1830 6066                        MOVE.B    $60(A0,D3.W),D4
 3C00                             MOVE.W    D0,D6
 0000 FE80                        OR.B      #$80,D0
 8000                             OR.B      D0,D0
 0000 0000                        OR.B      #$00,D0
 FE02                             Invalid
 0200 0000                        AND.B     #$00,D0
 4244                             CLR.W     D4
 4856                             PEA       (A6)
 2946 881F                        MOVE.L    D6,-$77E1(A4)
 4244                             CLR.W     D4
 4856                             PEA       (A6)
 2A5F                             MOVE.L    (A7)+,A5
 8207                             OR.B      D7,D1
 3000                             MOVE.W    D0,D0
 3030 3030                        MOVE.W    $30(A0,D0.L),D0
 3000                             MOVE.W    D0,D0
 0024 4890                        OR.B      #$90,-(A4)
 4824                             NBCD      -(A4)
 0000 0048                        OR.B      #$48,D0
 2412                             MOVE.L    (A2),D2
 2448                             MOVE.L    A0,A2
 0000 8822                        OR.B      #$22,D0
 8822                             OR.B      -(A2),D4
 8800                             OR.B      D0,D4
 8822                             OR.B      -(A2),D4
 AA55                             Invalid
 AA55                             Invalid
 AA00                             Invalid
 AA55                             Invalid
 77DD                             MOVEQ     #$DD,D3
 77DD                             MOVEQ     #$DD,D3
 77FF                             MOVEQ     #$FF,D3
 77DD                             MOVEQ     #$DD,D3
 1010                             MOVE.B    (A0),D0
 1010                             MOVE.B    (A0),D0
 1010                             MOVE.B    (A0),D0
 1010                             MOVE.B    (A0),D0
 1010                             MOVE.B    (A0),D0
 10F0 1010                        MOVE.B    $10(A0,D0.L),(A0)+
 1010                             MOVE.B    (A0),D0
 1010                             MOVE.B    (A0),D0
 F010                             Invalid
 F010                             Invalid
 1010                             MOVE.B    (A0),D0
 2828 28E8                        MOVE.L    $28E8(A0),D4
 2828 2828                        MOVE.L    $2828(A0),D4
 0000 00F8                        OR.B      #$F8,D0
 2828 2828                        MOVE.L    $2828(A0),D4
 0000 F010                        OR.B      #$10,D0
 F010                             Invalid
 1010                             MOVE.B    (A0),D0
 2828 E808                        MOVE.L    -$17F8(A0),D4
 E828                             LSR.B     D4,D0
 2828 2828                        MOVE.L    $2828(A0),D4
 2828 2828                        MOVE.L    $2828(A0),D4
 2828 0000                        MOVE.L    $0000(A0),D4
 F808                             Invalid
 E828                             LSR.B     D4,D0
 2828 2828                        MOVE.L    $2828(A0),D4
 E808                             LSR.B     #4,D0
 F800                             Invalid
 0000 2828                        OR.B      #$28,D0
 28F8 0000                        MOVE.L    $0000,(A4)+
 0000 1010                        OR.B      #$10,D0
 F010                             Invalid
 F000                             Invalid
 0000 0000                        OR.B      #$00,D0
 00F0                             Invalid
 1010                             MOVE.B    (A0),D0
 1010                             MOVE.B    (A0),D0
 1010                             MOVE.B    (A0),D0
 101F                             MOVE.B    (A7)+,D0
 0000 0000                        OR.B      #$00,D0
 1010                             MOVE.B    (A0),D0
 10FF                             MOVE.B    ,(A0)+
 0000 0000                        OR.B      #$00,D0
 0000 00FF                        OR.B      #$FF,D0
 1010                             MOVE.B    (A0),D0
 1010                             MOVE.B    (A0),D0
 1010                             MOVE.B    (A0),D0
 101F                             MOVE.B    (A7)+,D0
 1010                             MOVE.B    (A0),D0
 1010                             MOVE.B    (A0),D0
 0000 00FF                        OR.B      #$FF,D0
 0000 0000                        OR.B      #$00,D0
 1010                             MOVE.B    (A0),D0
 10FF                             MOVE.B    ,(A0)+
 1010                             MOVE.B    (A0),D0
 1010                             MOVE.B    (A0),D0
 1010                             MOVE.B    (A0),D0
 1F10                             MOVE.B    (A0),-(A7)
 1F10                             MOVE.B    (A0),-(A7)
 1010                             MOVE.B    (A0),D0
 2828 282F                        MOVE.L    $282F(A0),D4
 2828 2828                        MOVE.L    $2828(A0),D4
 2828 2F20                        MOVE.L    $2F20(A0),D4
 3F00                             MOVE.W    D0,-(A7)
 0000 0000                        OR.B      #$00,D0
 3F20                             MOVE.W    -(A0),-(A7)
 2F28 2828                        MOVE.L    $2828(A0),-(A7)
 2828 EF00                        MOVE.L    -$1100(A0),D4
 FF00                             Invalid
 0000 0000                        OR.B      #$00,D0
 FF00                             Invalid
 EF28                             LSL.B     D7,D0
 2828 2828                        MOVE.L    $2828(A0),D4
 2F20                             MOVE.L    -(A0),-(A7)
 2F28 2828                        MOVE.L    $2828(A0),-(A7)
 0000 FF00                        OR.B      #$00,D0
 FF00                             Invalid
 0000 2828                        OR.B      #$28,D0
 EF00                             ASL.B     #7,D0
 EF28                             LSL.B     D7,D0
 2828 1010                        MOVE.L    $1010(A0),D4
 FF00                             Invalid
 FF00                             Invalid
 0000 2828                        OR.B      #$28,D0
 28FF                             MOVE.L    ,(A4)+
 0000 0000                        OR.B      #$00,D0
 0000 FF00                        OR.B      #$00,D0
 FF10                             Invalid
 1010                             MOVE.B    (A0),D0
 0000 00FF                        OR.B      #$FF,D0
 2828 2828                        MOVE.L    $2828(A0),D4
 2828 283F                        MOVE.L    $283F(A0),D4
 0000 0000                        OR.B      #$00,D0
 1010                             MOVE.B    (A0),D0
 1F10                             MOVE.B    (A0),-(A7)
 1F00                             MOVE.B    D0,-(A7)
 0000 0000                        OR.B      #$00,D0
 1F10                             MOVE.B    (A0),-(A7)
 1F10                             MOVE.B    (A0),-(A7)
 1010                             MOVE.B    (A0),D0
 0000 003F                        OR.B      #$3F,D0
 2828 2828                        MOVE.L    $2828(A0),D4
 2828 28FF                        MOVE.L    $28FF(A0),D4
 2828 2828                        MOVE.L    $2828(A0),D4
 1010                             MOVE.B    (A0),D0
 FF10                             Invalid
 FF10                             Invalid
 1010                             MOVE.B    (A0),D0
 1010                             MOVE.B    (A0),D0
 10F0 0000                        MOVE.B    $00(A0,D0.W),(A0)+
 0000 0000                        OR.B      #$00,D0
 001F 1010                        OR.B      #$10,(A7)+
 1010                             MOVE.B    (A0),D0
 FFFF                             Invalid
 FFFF                             Invalid
 FFFF                             Invalid
 FFFF                             Invalid
 0000 0000                        OR.B      #$00,D0
 FFFF                             Invalid
 FFFF                             Invalid
 F0F0                             Invalid
 F0F0                             Invalid
 F0F0                             Invalid
 F0F0                             Invalid
 0F0F 0F0F                        MOVEP.W   $0F0F(A7),D7
 0F0F 0F0F                        MOVEP.W   $0F0F(A7),D7
 FFFF                             Invalid
 FFFF                             Invalid
 0000 0000                        OR.B      #$00,D0
 0000 0072                        OR.B      #$72,D0
 8C88                             OR.L      A0,D6
 3A00                             MOVE.W    D0,D5
 3048                             MOVE.W    A0,A0
 487C 4242                        PEA       #$4242
 DC00                             ADD.B     D0,D6
 0000 FE42                        OR.B      #$42,D0
 4040                             NEGX.W    D0
 E000                             ASR.B     #8,D0
 0000 FE44                        OR.B      #$44,D0
 4444                             NEG.W     D4
 EE00                             ASR.B     #7,D0
 FE42                             Invalid
 2010                             MOVE.L    (A0),D0
 2042                             MOVE.L    D2,A0
 FE00                             Invalid
 0000 003E                        OR.B      #$3E,D0
 4444                             NEG.W     D4
 3800                             MOVE.W    D0,D4
 0000 CC44                        OR.B      #$44,D0
 4444                             NEG.W     D4
 7A40                             MOVEQ     #$40,D5
 0000 7C10                        OR.B      #$10,D0
 1010                             MOVE.B    (A0),D0
 1C00                             MOVE.B    D0,D6
 0010 7C92                        OR.B      #$92,(A0)
 927C 1000                        SUB.W     #$1000,D1
 0000 7C82                        OR.B      #$82,D0
 BA82                             CMP.L     D2,D5
 7C00                             MOVEQ     #$00,D6
 007C 8282                        OR.W      #$8282,SR
 6C28                             BGE       $00000D18
 EE00                             ASR.B     #7,D0
 007C 2038                        OR.W      #$2038,SR
 4444                             NEG.W     D4
 3800                             MOVE.W    D0,D4
 0000 6C92                        OR.B      #$92,D0
 926C 0000                        SUB.W     $0000(A4),D1
 0000 4C92                        OR.B      #$92,D0
 927C 1000                        SUB.W     #$1000,D1
 0000 3C40                        OR.B      #$40,D0
 3040                             MOVE.W    D0,A0
 3C00                             MOVE.W    D0,D6
 0000 3C42                        OR.B      #$42,D0
 4242                             CLR.W     D2
 4200                             CLR.B     D0
 00FE                             Invalid
 00FE                             Invalid
 00FE                             Invalid
 0000 1010                        OR.B      #$10,D0
 FE10                             Invalid
 10FE                             MOVE.B    ,(A0)+
 0000 4010                        OR.B      #$10,D0
 0410 40FE                        SUB.B     #$FE,(A0)
 0000 0410                        OR.B      #$10,D0
 4010                             NEGX.B    (A0)
 04FE                             Invalid
 0000 0C10                        OR.B      #$10,D0
 1010                             MOVE.B    (A0),D0
 1010                             MOVE.B    (A0),D0
 1010                             MOVE.B    (A0),D0
 1010                             MOVE.B    (A0),D0
 1010                             MOVE.B    (A0),D0
 1010                             MOVE.B    (A0),D0
 1060                             MOVE.B    -(A0),A0
 0000 1000                        OR.B      #$00,D0
 FE00                             Invalid
 1000                             MOVE.B    D0,D0
 0062 9C00                        OR.W      #$9C00,-(A2)
 629C                             BHI       $00000CF4
 0000 3048                        OR.B      #$48,D0
 4830 0000                        NBCD      $00(A0,D0.W)
 0000 0000                        OR.B      #$00,D0
 0030 3000 0000                   OR.B      #$00,$00(A0,D0.W)
 0000 0000                        OR.B      #$00,D0
 0800 0000                        BTST      #$00,D0
 0102                             BTST      D0,D2
 E224                             ASR.B     D1,D4
 1418                             MOVE.B    (A0)+,D2
 0800 0000                        BTST      #$00,D0
 5824                             ADDQ.B    #$4,-(A4)
 2400                             MOVE.L    D0,D2
 0000 3048                        OR.B      #$48,D0
 1020                             MOVE.B    -(A0),D0
 7800                             MOVEQ     #$00,D4
 0000 0000                        OR.B      #$00,D0
 FFFF                             Invalid
 FFFF                             Invalid
 0000 0000                        OR.B      #$00,D0
 0000 0000                        OR.B      #$00,D0
 0000 0C39                        OR.B      #$39,D0
 0051 00A1                        OR.W      #$00A1,(A1)
 200F                             MOVE.L    A7,D0
 6700 001C                        BEQ       $00000DC0(pc)
 0C39 0050 00A1200F               CMP.B     #$50,$00A1200F
 6700 0010                        BEQ       $00000DC0(pc)
 4FEF 0004                        LEA       $0004(A7),A7
 207C 00002CEA                    MOVE.L    #$00002CEA,A0
 6000 1F78                        BRA       $00002D36(pc)
 4E75                             RTS
 0C39 0051 00A1200F               CMP.B     #$51,$00A1200F
 66F6                             BNE       $00000DC2
 4E75                             RTS
 13FC 0050 00A1200E               MOVE.B    #$50,$00A1200E
 0C39 0050 00A1200F               CMP.B     #$50,$00A1200F
 66F6                             BNE       $00000DD6
 13FC 0051 00A1200E               MOVE.B    #$51,$00A1200E
 4E75                             RTS
 61AE                             BSR       $00000D9A
 61D4                             BSR       $00000DC2
 33FC 4341 00A12010               MOVE.W    #$4341,$00A12010
 33C0 00A12012                    MOVE.W    D0,$00A12012
 60D0                             BRA       $00000DCE
 619A                             BSR       $00000D9A
 61C0                             BSR       $00000DC2
 33FC 4342 00A12010               MOVE.W    #$4342,$00A12010
 33C0 00A12012                    MOVE.W    D0,$00A12012
 60BC                             BRA       $00000DCE
 6186                             BSR       $00000D9A
 61AC                             BSR       $00000DC2
 33FC 4343 00A12010               MOVE.W    #$4343,$00A12010
 60AE                             BRA       $00000DCE
 6100 FF78                        BSR       $00000D9A(pc)
 619C                             BSR       $00000DC2
 33FC 4346 00A12010               MOVE.W    #$4346,$00A12010
 609E                             BRA       $00000DCE
 6100 FF68                        BSR       $00000D9A(pc)
 618C                             BSR       $00000DC2
 33FC 4347 00A12010               MOVE.W    #$4347,$00A12010
 608E                             BRA       $00000DCE
 6100 FF58                        BSR       $00000D9A(pc)
 46FC 2700                        MOVE      #$2700,SR
 42B9 00FF0006                    CLR.L     $00FF0006
 42B9 00FF0012                    CLR.L     $00FF0012
 207C 00000E6E                    MOVE.L    #$00000E6E,A0
 224B                             MOVE.L    A3,A1
 223C 00000044                    MOVE.L    #$00000044,D1
 12D8                             MOVE.B    (A0)+,(A1)+
 51C9 FFFC                        DBRA      D1,$00000E62
 4EF9 00FF0056                    JMP       $00FF0056
 08F9 0001 00A12003               BSET      #$01,$00A12003
 0C39 0051 00A1200F               CMP.B     #$51,$00A1200F
 66F6                             BNE       $00000E76
 33FC 4344 00A12010               MOVE.W    #$4344,$00A12010
 23C0 00A12012                    MOVE.L    D0,$00A12012
 13FC 0050 00A1200E               MOVE.B    #$50,$00A1200E
 0C39 0050 00A1200F               CMP.B     #$50,$00A1200F
 66F6                             BNE       $00000E96
 13FC 0051 00A1200E               MOVE.B    #$51,$00A1200E
 4EF9 00200002                    JMP       $00200002
 48E7 001E                        MOVEM.L   A3-A6,-(A7)
 6100 FEE6                        BSR       $00000D9A(pc)
 0280 00FFFFFE                    AND.L     #$00FFFFFE,D0
 2840                             MOVE.L    D0,A4
 2006                             MOVE.L    D6,D0
 0286 0003FFFE                    AND.L     #$0003FFFE,D6
 4240                             CLR.W     D0
 4840                             SWAP      D0
 E488                             LSR.L     #2,D0
 DE40                             ADD.W     D0,D7
 E28D                             LSR.L     #1,D5
 6700 008E                        BEQ       $00000F60(pc)
 5345                             SUBQ.W    #$1,D5
 2405                             MOVE.L    D5,D2
 E68A                             LSR.L     #3,D2
 0C39 0051 00A1200F               CMP.B     #$51,$00A1200F
 66F6                             BNE       $00000EDA
 33FC 4345 00A12010               MOVE.W    #$4345,$00A12010
 23C7 00A12012                    MOVE.L    D7,$00A12012
 23C6 00A12016                    MOVE.L    D6,$00A12016
 33C5 00A1201A                    MOVE.W    D5,$00A1201A
 13FC 0050 00A1200E               MOVE.B    #$50,$00A1200E
 183C 0050                        MOVE.B    #$50,D4
 163C 0051                        MOVE.B    #$51,D3
 41F9 00A12020                    LEA       $00A12020,A0
 43E8 0004                        LEA       $0004(A0),A1
 45E9 0004                        LEA       $0004(A1),A2
 47EA 0004                        LEA       $0004(A2),A3
 4BF9 00A1200F                    LEA       $00A1200F,A5
 4DF9 00A1200E                    LEA       $00A1200E,A6
 5342                             SUBQ.W    #$1,D2
 6500 0016                        BCS       $00000F46(pc)
 B815                             CMP.B     (A5),D4
 66FC                             BNE       $00000F32
 28D0                             MOVE.L    (A0),(A4)+
 28D1                             MOVE.L    (A1),(A4)+
 28D2                             MOVE.L    (A2),(A4)+
 28D3                             MOVE.L    (A3),(A4)+
 1C83                             MOVE.B    D3,(A6)
 C943                             Invalid
 51CA FFEE                        DBRA      D2,$00000F32
 0245 0007                        AND.W     #$0007,D5
 B815                             CMP.B     (A5),D4
 66FC                             BNE       $00000F4A
 38D8                             MOVE.W    (A0)+,(A4)+
 51CD FFFC                        DBRA      D5,$00000F4E
 1C83                             MOVE.B    D3,(A6)
 C943                             Invalid
 B815                             CMP.B     (A5),D4
 66FC                             BNE       $00000F58
 1CBC 0051                        MOVE.B    #$51,(A6)
 4CDF 7800                        MOVEM.L   (A7)+,A3-A6
 4E75                             RTS
 48E7 0016                        MOVEM.L   A3/A5-A6,-(A7)
 6100 FE2E                        BSR       $00000D9A(pc)
 46FC 2700                        MOVE      #$2700,SR
 0280 000007FF                    AND.L     #$000007FF,D0
 397C 8F02 0004                   MOVE.W    #$8F02,$0004(A4)
 EF88                             LSL.L     #7,D0
 E448                             LSR.W     #2,D0
 4840                             SWAP      D0
 0680 40000000                    ADD.L     #$40000000,D0
 2940 0004                        MOVE.L    D0,$0004(A4)
 0886 0000                        BCLR      #$00,D6
 DA85                             ADD.L     D5,D5
 2405                             MOVE.L    D5,D2
 E78D                             LSL.L     #3,D5
 0C39 0051 00A1200F               CMP.B     #$51,$00A1200F
 66F6                             BNE       $00000F98
 33FC 4345 00A12010               MOVE.W    #$4345,$00A12010
 23C7 00A12012                    MOVE.L    D7,$00A12012
 23C6 00A12016                    MOVE.L    D6,$00A12016
 33C5 00A1201A                    MOVE.W    D5,$00A1201A
 13FC 0050 00A1200E               MOVE.B    #$50,$00A1200E
 183C 0050                        MOVE.B    #$50,D4
 1A3C 0051                        MOVE.B    #$51,D5
 41F9 00A12020                    LEA       $00A12020,A0
 43E8 0004                        LEA       $0004(A0),A1
 45E9 0004                        LEA       $0004(A1),A2
 47EA 0004                        LEA       $0004(A2),A3
 4BF9 00A1200F                    LEA       $00A1200F,A5
 4DF9 00A1200E                    LEA       $00A1200E,A6
 5342                             SUBQ.W    #$1,D2
 B815                             CMP.B     (A5),D4
 66FC                             BNE       $00000FEC
 2890                             MOVE.L    (A0),(A4)
 2891                             MOVE.L    (A1),(A4)
 2892                             MOVE.L    (A2),(A4)
 2893                             MOVE.L    (A3),(A4)
 1C85                             MOVE.B    D5,(A6)
 C945                             Invalid
 51CA FFEE                        DBRA      D2,$00000FEC
 B815                             CMP.B     (A5),D4
 66FC                             BNE       $00001000
 1CBC 0051                        MOVE.B    #$51,(A6)
 4CDF 6800                        MOVEM.L   (A7)+,A3/A5-A6
 46FC 2000                        MOVE      #$2000,SR
 4E75                             RTS
 224B                             MOVE.L    A3,A1
 1CD9                             MOVE.B    (A1)+,(A6)+
 66FC                             BNE       $00001014
 2A4B                             MOVE.L    A3,A5
 4E75                             RTS
 4A80                             TST.L     D0
 6720                             BEQ       $00001040
 123C 0092                        MOVE.B    #$92,D1
 142C 0009                        MOVE.B    $0009(A4),D2
 4E71                             NOP
 4E71                             NOP
 B202                             CMP.B     D2,D1
 64F4                             BCC       $00001024
 142C 0009                        MOVE.B    $0009(A4),D2
 4E71                             NOP
 4E71                             NOP
 B202                             CMP.B     D2,D1
 65F4                             BCS       $00001030
 5380                             SUBQ.L    #$1,D0
 66E4                             BNE       $00001024
 4E75                             RTS
 221F                             MOVE.L    (A7)+,D1
 4A80                             TST.L     D0
 6700 001A                        BEQ       $00001062(pc)
 1039 00FF002F                    MOVE.B    $00FF002F,D0
 0C2C 0000 0009                   CMP.B     #$00,$0009(A4)
 66F8                             BNE       $00001050
 B02C 0009                        CMP.B     $0009(A4),D0
 66FA                             BNE       $00001058
 5380                             SUBQ.L    #$1,D0
 66EE                             BNE       $00001050
 4E75                             RTS
 4A80                             TST.L     D0
 6700 001A                        BEQ       $00001082(pc)
 1239 00FF002E                    MOVE.B    $00FF002E,D1
 B22C 0008                        CMP.B     $0008(A4),D1
 66FA                             BNE       $00001070
 0C2C 0000 0008                   CMP.B     #$00,$0008(A4)
 66F8                             BNE       $00001076
 5380                             SUBQ.L    #$1,D0
 66EE                             BNE       $00001070
 4E75                             RTS
 207C 00C00008                    MOVE.L    #$00C00008,A0
 B010                             CMP.B     (A0),D0
 66FC                             BNE       $0000108A
 4E75                             RTS
 4A80                             TST.L     D0
 6700 001A                        BEQ       $000010AE(pc)
 1239 00FF002E                    MOVE.B    $00FF002E,D1
 0C2C 0000 0008                   CMP.B     #$00,$0008(A4)
 66F8                             BNE       $0000109C
 B22C 0008                        CMP.B     $0008(A4),D1
 66FA                             BNE       $000010A4
 5380                             SUBQ.L    #$1,D0
 66EE                             BNE       $0000109C
 4E75                             RTS
 1039 00FF002F                    MOVE.B    $00FF002F,D0
 B02C 0009                        CMP.B     $0009(A4),D0
 62FA                             BHI       $000010B6
 4E75                             RTS
 1039 00FF002E                    MOVE.B    $00FF002E,D0
 B02C 0008                        CMP.B     $0008(A4),D0
 62FA                             BHI       $000010C4
 4E75                             RTS
 4E71                             NOP
 4E71                             NOP
 0839 0001 00A1518B               BTST      #$01,$00A1518B
 66F2                             BNE       $000010CC
 4E75                             RTS
 1039 00FF002E                    MOVE.B    $00FF002E,D0
 B02C 0008                        CMP.B     $0008(A4),D0
 63F4                             BLS       $000010DC
 4E75                             RTS
 46FC 2700                        MOVE      #$2700,SR
 3F01                             MOVE.W    D1,-(A7)
 4FEF FFF8                        LEA       -$0008(A7),A7
 43D7                             LEA       (A7),A1
 0280 00000003                    AND.L     #$00000003,D0
 7400                             MOVEQ     #$00,D2
 207C 00A10003                    MOVE.L    #$00A10003,A0
 E308                             LSL.B     #1,D0
 D1C0                             ADD.L     D0,A0
 303C 0003                        MOVE.W    #$0003,D0
 12D0                             MOVE.B    (A0),(A1)+
 10BC 0000                        MOVE.B    #$00,(A0)
 323C 000A                        MOVE.W    #$000A,D1
 51C9 FFFE                        DBRA      D1,$00001116
 12D0                             MOVE.B    (A0),(A1)+
 10BC 0040                        MOVE.B    #$40,(A0)
 323C 000A                        MOVE.W    #$000A,D1
 51C9 FFFE                        DBRA      D1,$00001124
 51C8 FFE2                        DBRA      D0,$0000110C
 102F 0002                        MOVE.B    $0002(A7),D0
 0240 003F                        AND.W     #$003F,D0
 122F 0003                        MOVE.B    $0003(A7),D1
 0201 0030                        AND.B     #$30,D1
 E509                             LSL.B     #2,D1
 D001                             ADD.B     D1,D0
 142F 0006                        MOVE.B    $0006(A7),D2
 0242 000F                        AND.W     #$000F,D2
 E14A                             LSL.W     #8,D2
 D440                             ADD.W     D0,D2
 4642                             NOT.W     D2
 0242 0FFF                        AND.W     #$0FFF,D2
 4FEF 0008                        LEA       $0008(A7),A7
 321F                             MOVE.W    (A7)+,D1
 46FC 2000                        MOVE      #$2000,SR
 4E75                             RTS
 4258                             CLR.W     (A0)+
 5340                             SUBQ.W    #$1,D0
 66FA                             BNE       $0000115E
 4E75                             RTS
 4298                             CLR.L     (A0)+
 5340                             SUBQ.W    #$1,D0
 66FA                             BNE       $00001166
 4E75                             RTS
 0480 00000001                    SUB.L     #$00000001,D0
 43E9 0020                        LEA       $0020(A1),A1
 4CD8 04FE                        MOVEM.L   (A0)+,D1-D7/A2
 48E1 7F20                        MOVEM.L   D1-D7/A2,-(A1)
 43E9 0040                        LEA       $0040(A1),A1
 51C8 FFF2                        DBRA      D0,$00001178
 4E75                             RTS
 2F0B                             MOVE.L    A3,-(A7)
 0C80 00000003                    CMP.L     #$00000003,D0
 6500 00CC                        BCS       $00001260(pc)
 2408                             MOVE.L    A0,D2
 0282 00000003                    AND.L     #$00000003,D2
 6700 000C                        BEQ       $000011AC(pc)
 12D8                             MOVE.B    (A0)+,(A1)+
 0480 00000001                    SUB.L     #$00000001,D0
 60EA                             BRA       $00001196
 2409                             MOVE.L    A1,D2
 0282 00000003                    AND.L     #$00000003,D2
 6700 0010                        BEQ       $000011C6(pc)
 0282 00000001                    AND.L     #$00000001,D2
 6700 003C                        BEQ       $000011FC(pc)
 6000 0062                        BRA       $00001226(pc)
 2200                             MOVE.L    D0,D1
 EC89                             LSR.L     #6,D1
 6700 0094                        BEQ       $00001260(pc)
 2401                             MOVE.L    D1,D2
 ED8A                             LSL.L     #6,D2
 9082                             SUB.L     D2,D0
 43E9 0020                        LEA       $0020(A1),A1
 4CD8 1CF8                        MOVEM.L   (A0)+,D3-D7/A2-A4
 48E1 1F38                        MOVEM.L   D3-D7/A2-A4,-(A1)
 43E9 0040                        LEA       $0040(A1),A1
 4CD8 1CF8                        MOVEM.L   (A0)+,D3-D7/A2-A4
 48E1 1F38                        MOVEM.L   D3-D7/A2-A4,-(A1)
 43E9 0020                        LEA       $0020(A1),A1
 0481 00000001                    SUB.L     #$00000001,D1
 66DC                             BNE       $000011D4
 6000 0066                        BRA       $00001260(pc)
 2200                             MOVE.L    D0,D1
 EA89                             LSR.L     #5,D1
 6700 005E                        BEQ       $00001260(pc)
 2401                             MOVE.L    D1,D2
 EB8A                             LSL.L     #5,D2
 9082                             SUB.L     D2,D0
 43E9 0020                        LEA       $0020(A1),A1
 4CD8 1CF8                        MOVEM.L   (A0)+,D3-D7/A2-A4
 48E1 1F38                        MOVEM.L   D3-D7/A2-A4,-(A1)
 43E9 0020                        LEA       $0020(A1),A1
 0481 00000001                    SUB.L     #$00000001,D1
 66E8                             BNE       $0000120A
 6000 003C                        BRA       $00001260(pc)
 2200                             MOVE.L    D0,D1
 E889                             LSR.L     #4,D1
 6700 0034                        BEQ       $00001260(pc)
 2401                             MOVE.L    D1,D2
 E98A                             LSL.L     #4,D2
 9082                             SUB.L     D2,D0
 12D8                             MOVE.B    (A0)+,(A1)+
 12D8                             MOVE.B    (A0)+,(A1)+
 12D8                             MOVE.B    (A0)+,(A1)+
 12D8                             MOVE.B    (A0)+,(A1)+
 12D8                             MOVE.B    (A0)+,(A1)+
 12D8                             MOVE.B    (A0)+,(A1)+
 12D8                             MOVE.B    (A0)+,(A1)+
 12D8                             MOVE.B    (A0)+,(A1)+
 12D8                             MOVE.B    (A0)+,(A1)+
 12D8                             MOVE.B    (A0)+,(A1)+
 12D8                             MOVE.B    (A0)+,(A1)+
 12D8                             MOVE.B    (A0)+,(A1)+
 12D8                             MOVE.B    (A0)+,(A1)+
 12D8                             MOVE.B    (A0)+,(A1)+
 12D8                             MOVE.B    (A0)+,(A1)+
 12D8                             MOVE.B    (A0)+,(A1)+
 0481 00000001                    SUB.L     #$00000001,D1
 66D8                             BNE       $00001234
 6000 0002                        BRA       $00001260(pc)
 4A80                             TST.L     D0
 6700 000E                        BEQ       $00001272(pc)
 0480 00000001                    SUB.L     #$00000001,D0
 12D8                             MOVE.B    (A0)+,(A1)+
 51C8 FFFC                        DBRA      D0,$0000126C
 265F                             MOVE.L    (A7)+,A3
 4E75                             RTS
 204B                             MOVE.L    A3,A0
 1219                             MOVE.B    (A1)+,D1
 B218                             CMP.B     (A0)+,D1
 6600 0006                        BNE       $00001284(pc)
 4A01                             TST.B     D1
 66F4                             BNE       $00001278
 2A4B                             MOVE.L    A3,A5
 4E75                             RTS
 1AD8                             MOVE.B    (A0)+,(A5)+
 66FC                             BNE       $00001288
 4225                             CLR.B     -(A5)
 4E75                             RTS
 224B                             MOVE.L    A3,A1
 10D9                             MOVE.B    (A1)+,(A0)+
 66FC                             BNE       $00001292
 2A4B                             MOVE.L    A3,A5
 4E75                             RTS
 D280                             ADD.L     D0,D1
 48F9 0003 00FF000A               MOVEM.L   D0-D1,$00FF000A
 48E7 3000                        MOVEM.L   D2-D3,-(A7)
 4CF9 0003 00FF000A               MOVEM.L   $00FF000A,D0-D1
 0200 000E                        AND.B     #$0E,D0
 0000 0020                        OR.B      #$20,D0
 2400                             MOVE.L    D0,D2
 2601                             MOVE.L    D1,D3
 D482                             ADD.L     D2,D2
 D783                             Invalid
 D082                             ADD.L     D2,D0
 D383                             Invalid
 4843                             SWAP      D3
 4842                             SWAP      D2
 3602                             MOVE.W    D2,D3
 4242                             CLR.W     D2
 D082                             ADD.L     D2,D0
 D383                             Invalid
 48F9 0003 00FF000A               MOVEM.L   D0-D1,$00FF000A
 2001                             MOVE.L    D1,D0
 4CDF 000C                        MOVEM.L   (A7)+,D2-D3
 4E75                             RTS
 4282                             CLR.L     D2
 2A4A                             MOVE.L    A2,A5
 5282                             ADDQ.L    #$1,D2
 4A1A                             TST.B     (A2)+
 66FA                             BNE       $000012E4
 5382                             SUBQ.L    #$1,D2
 4E75                             RTS
 204A                             MOVE.L    A2,A0
 4A18                             TST.B     (A0)+
 6700 0006                        BEQ       $000012FA(pc)
 51C8 FFF8                        DBRA      D0,$000012F0
 4220                             CLR.B     -(A0)
 2A48                             MOVE.L    A0,A5
 4E75                             RTS
 204A                             MOVE.L    A2,A0
 224D                             MOVE.L    A5,A1
 93C0                             SUB.L     D0,A1
 B3C8                             CMP.L     A0,A1
 6200 0004                        BHI       $0000130E(pc)
 4E75                             RTS
 10D9                             MOVE.B    (A1)+,(A0)+
 66FC                             BNE       $0000130E
 2A48                             MOVE.L    A0,A5
 538D                             SUBQ.L    #$1,A5
 4E75                             RTS
 204A                             MOVE.L    A2,A0
 2248                             MOVE.L    A0,A1
 4A80                             TST.L     D0
 6700 000A                        BEQ       $0000132A(pc)
 D1C1                             ADD.L     D1,A0
 BBC8                             CMP.L     A0,A5
 6200 0008                        BHI       $00001330(pc)
 4211                             CLR.B     (A1)
 2A49                             MOVE.L    A1,A5
 4E75                             RTS
 5380                             SUBQ.L    #$1,D0
 12D8                             MOVE.B    (A0)+,(A1)+
 6700 0008                        BEQ       $0000133E(pc)
 51C8 FFF8                        DBRA      D0,$00001332
 4211                             CLR.B     (A1)
 2A49                             MOVE.L    A1,A5
 4E75                             RTS
 204A                             MOVE.L    A2,A0
 2248                             MOVE.L    A0,A1
 D1C0                             ADD.L     D0,A0
 BBC8                             CMP.L     A0,A5
 6200 0008                        BHI       $00001354(pc)
 4211                             CLR.B     (A1)
 2A49                             MOVE.L    A1,A5
 4E75                             RTS
 12D8                             MOVE.B    (A0)+,(A1)+
 66FC                             BNE       $00001354
 2A49                             MOVE.L    A1,A5
 4E75                             RTS
 3F02                             MOVE.W    D2,-(A7)
 3400                             MOVE.W    D0,D2
 670E                             BEQ       $00001370
 6100 FF40                        BSR       $000012A4(pc)
 4240                             CLR.W     D0
 4840                             SWAP      D0
 80C2                             DIVU      D2,D0
 4240                             CLR.W     D0
 4840                             SWAP      D0
 341F                             MOVE.W    (A7)+,D2
 4E75                             RTS
 2F01                             MOVE.L    D1,-(A7)
 2F02                             MOVE.L    D2,-(A7)
 2F03                             MOVE.L    D3,-(A7)
 2F04                             MOVE.L    D4,-(A7)
 2F05                             MOVE.L    D5,-(A7)
 0280 0000FFFF                    AND.L     #$0000FFFF,D0
 2400                             MOVE.L    D0,D2
 4281                             CLR.L     D1
 263C 00002710                    MOVE.L    #$00002710,D3
 283C 00000004                    MOVE.L    #$00000004,D4
 4285                             CLR.L     D5
 84C3                             DIVU      D3,D2
 3202                             MOVE.W    D2,D1
 4A41                             TST.W     D1
 6700 0026                        BEQ       $000013C4(pc)
 2A3C 00000001                    MOVE.L    #$00000001,D5
 0601 0030                        ADD.B     #$30,D1
 1AC1                             MOVE.B    D1,(A5)+
 86FC 000A                        DIVU      #$0A,D3
 4242                             CLR.W     D2
 4842                             SWAP      D2
 51CC FFE0                        DBRA      D4,$00001396
 2A1F                             MOVE.L    (A7)+,D5
 281F                             MOVE.L    (A7)+,D4
 261F                             MOVE.L    (A7)+,D3
 241F                             MOVE.L    (A7)+,D2
 221F                             MOVE.L    (A7)+,D1
 4E75                             RTS
 4A85                             TST.L     D5
 66D8                             BNE       $000013A0
 4A84                             TST.L     D4
 67D4                             BEQ       $000013A0
 60DE                             BRA       $000013AC
 2F0B                             MOVE.L    A3,-(A7)
 4280                             CLR.L     D0
 6100 1AFA                        BSR       $00002ECE(pc)
 41FA 0195                        LEA       $0000156D(pc),A0
 47E8 FFFF                        LEA       -$0001(A0),A3
 244D                             MOVE.L    A5,A2
 4241                             CLR.W     D1
 1210                             MOVE.B    (A0),D1
 6100 033E                        BSR       $00001724(pc)
 46FC 2700                        MOVE      #$2700,SR
 2940 0004                        MOVE.L    D0,$0004(A4)
 D279 00FF0002                    ADD.W     $00FF0002,D1
 3881                             MOVE.W    D1,(A4)
 46FC 2000                        MOVE      #$2000,SR
 203C 00000002                    MOVE.L    #$00000002,D0
 6100 FC60                        BSR       $00001064(pc)
 2F08                             MOVE.L    A0,-(A7)
 4280                             CLR.L     D0
 6100 FCDE                        BSR       $000010EA(pc)
 205F                             MOVE.L    (A7)+,A0
 0802 0000                        BTST      #$00,D2
 6600 002C                        BNE       $00001442(pc)
 0802 0001                        BTST      #$01,D2
 6600 0058                        BNE       $00001476(pc)
 0802 0006                        BTST      #$06,D2
 6600 005C                        BNE       $00001482(pc)
 0802 0004                        BTST      #$04,D2
 6600 0094                        BNE       $000014C2(pc)
 0802 0005                        BTST      #$05,D2
 6600 00EE                        BNE       $00001524(pc)
 0802 0007                        BTST      #$07,D2
 6600 010C                        BNE       $0000154A(pc)
 60BA                             BRA       $000013FC
 5288                             ADDQ.L    #$1,A0
 4A10                             TST.B     (A0)
 6600 0006                        BNE       $0000144E(pc)
 41EB 0001                        LEA       $0001(A3),A0
 4241                             CLR.W     D1
 1210                             MOVE.B    (A0),D1
 6100 02D0                        BSR       $00001724(pc)
 46FC 2700                        MOVE      #$2700,SR
 2940 0004                        MOVE.L    D0,$0004(A4)
 D279 00FF0002                    ADD.W     $00FF0002,D1
 3881                             MOVE.W    D1,(A4)
 46FC 2000                        MOVE      #$2000,SR
 203C 0000000A                    MOVE.L    #$0000000A,D0
 6100 FBF2                        BSR       $00001064(pc)
 6086                             BRA       $000013FC
 5388                             SUBQ.L    #$1,A0
 4A10                             TST.B     (A0)
 66D2                             BNE       $0000144E
 41EB 0025                        LEA       $0025(A3),A0
 60CC                             BRA       $0000144E
 0C10 005F                        CMP.B     #$5F,(A0)
 6700 001E                        BEQ       $000014A6(pc)
 1AD0                             MOVE.B    (A0),(A5)+
 5239 00FF0000                    ADDQ.B    #$1,$00FF0000
 1039 00FF002A                    MOVE.B    $00FF002A,D0
 B039 00FF0000                    CMP.B     $00FF0000,D0
 66AE                             BNE       $0000144E
 6100 1126                        BSR       $000025C8(pc)
 60A8                             BRA       $0000144E
 1AFC 0020                        MOVE.B    #$20,(A5)+
 6100 0278                        BSR       $00001724(pc)
 46FC 2700                        MOVE      #$2700,SR
 2940 0004                        MOVE.L    D0,$0004(A4)
 38B9 00FF0002                    MOVE.W    $00FF0002,(A4)
 46FC 2000                        MOVE      #$2000,SR
 60CA                             BRA       $0000148C
 BBCA                             CMP.L     A2,A5
 6700 FF36                        BEQ       $000013FC(pc)
 6100 025A                        BSR       $00001724(pc)
 46FC 2700                        MOVE      #$2700,SR
 2940 0004                        MOVE.L    D0,$0004(A4)
 38B9 00FF0002                    MOVE.W    $00FF0002,(A4)
 46FC 2000                        MOVE      #$2000,SR
 207C 0000156D                    MOVE.L    #$0000156D,A0
 1025                             MOVE.B    -(A5),D0
 0C00 0020                        CMP.B     #$20,D0
 6700 000A                        BEQ       $000014F6(pc)
 5288                             ADDQ.L    #$1,A0
 B018                             CMP.B     (A0)+,D0
 66FC                             BNE       $000014F0
 5388                             SUBQ.L    #$1,A0
 4A39 00FF0000                    TST.B     $00FF0000
 6700 000C                        BEQ       $0000150A(pc)
 5339 00FF0000                    SUBQ.B    #$1,$00FF0000
 6000 FF46                        BRA       $0000144E(pc)
 13F9 00FF002A 00FF0000           MOVE.B    $00FF002A,$00FF0000
 5339 00FF0000                    SUBQ.B    #$1,$00FF0000
 5339 00FF0001                    SUBQ.B    #$1,$00FF0001
 6000 FF2C                        BRA       $0000144E(pc)
 B7FC 0000156C                    CMP.L     #$0000156C,A3
 6700 0010                        BEQ       $0000153C(pc)
 267C 0000156C                    MOVE.L    #$0000156C,A3
 41E8 FFD9                        LEA       -$0027(A0),A0
 6000 FF14                        BRA       $0000144E(pc)
 267C 00001593                    MOVE.L    #$00001593,A3
 41E8 0027                        LEA       $0027(A0),A0
 6000 FF06                        BRA       $0000144E(pc)
 BBCA                             CMP.L     A2,A5
 6700 FEAE                        BEQ       $000013FC(pc)
 4215                             CLR.B     (A5)
 6100 01D0                        BSR       $00001724(pc)
 46FC 2700                        MOVE      #$2700,SR
 2940 0004                        MOVE.L    D0,$0004(A4)
 38B9 00FF0002                    MOVE.W    $00FF0002,(A4)
 46FC 2000                        MOVE      #$2000,SR
 265F                             MOVE.L    (A7)+,A3
 4E75                             RTS
 005F 4142                        OR.W      #$4142,(A7)+
 4344                             Invalid
 4546                             Invalid
 4748                             Invalid
 494A                             Invalid
 4B4C                             Invalid
 4D4E                             Invalid
 4F50                             Invalid
 5152 5354                        DBRA      D2,$000068D4
 5556                             SUBQ.W    #$2,(A6)
 5758                             SUBQ.W    #$3,(A0)+
 595A                             SUBQ.W    #$4,(A2)+
 3031 3233                        MOVE.W    $32(A1,A1.L),D0
 3435 3637                        MOVE.W    $36(A5,A3.L),D2
 3839 00005F61                    MOVE.W    $00005F61,D4
 6263                             BHI       $000015FB
 6465                             BCC       $000015FF
 6667                             BNE       $00001603
 6869                             BVC       $00001607
 6A6B                             BPL       $0000160B
 6C6D                             BGE       $0000160F
 6E6F                             BGT       $00001613
 7071                             MOVEQ     #$71,D0
 7273                             MOVEQ     #$73,D1
 7475                             MOVEQ     #$75,D2
 7677                             MOVEQ     #$77,D3
 7879                             MOVEQ     #$79,D4
 7A30                             MOVEQ     #$30,D5
 3132 3334                        MOVE.W    $33(A2,D2.L),-(A0)
 3536 3738                        MOVE.W    $37(A6,D4.L),-(A2)
 3900                             MOVE.W    D0,-(A4)
 4280                             CLR.L     D0
 6100 1910                        BSR       $00002ECE(pc)
 41FA 0157                        LEA       $00001719(pc),A0
 244D                             MOVE.L    A5,A2
 4241                             CLR.W     D1
 1210                             MOVE.B    (A0),D1
 6100 0158                        BSR       $00001724(pc)
 46FC 2700                        MOVE      #$2700,SR
 2940 0004                        MOVE.L    D0,$0004(A4)
 D279 00FF0002                    ADD.W     $00FF0002,D1
 3881                             MOVE.W    D1,(A4)
 46FC 2000                        MOVE      #$2000,SR
 203C 00000002                    MOVE.L    #$00000002,D0
 6100 FA7A                        BSR       $00001064(pc)
 2F08                             MOVE.L    A0,-(A7)
 4280                             CLR.L     D0
 6100 FAF8                        BSR       $000010EA(pc)
 205F                             MOVE.L    (A7)+,A0
 0802 0000                        BTST      #$00,D2
 6600 0024                        BNE       $00001620(pc)
 0802 0001                        BTST      #$01,D2
 6600 0050                        BNE       $00001654(pc)
 0802 0006                        BTST      #$06,D2
 6600 0054                        BNE       $00001660(pc)
 0802 0004                        BTST      #$04,D2
 6600 008C                        BNE       $000016A0(pc)
 0802 0007                        BTST      #$07,D2
 6600 00DC                        BNE       $000016F8(pc)
 60C2                             BRA       $000015E2
 5288                             ADDQ.L    #$1,A0
 4A10                             TST.B     (A0)
 6600 0006                        BNE       $0000162C(pc)
 41FA 00EF                        LEA       $00001719(pc),A0
 4241                             CLR.W     D1
 1210                             MOVE.B    (A0),D1
 6100 00F2                        BSR       $00001724(pc)
 46FC 2700                        MOVE      #$2700,SR
 2940 0004                        MOVE.L    D0,$0004(A4)
 D279 00FF0002                    ADD.W     $00FF0002,D1
 3881                             MOVE.W    D1,(A4)
 46FC 2000                        MOVE      #$2000,SR
 203C 0000000A                    MOVE.L    #$0000000A,D0
 6100 FA14                        BSR       $00001064(pc)
 608E                             BRA       $000015E2
 5388                             SUBQ.L    #$1,A0
 4A10                             TST.B     (A0)
 66D2                             BNE       $0000162C
 41FA 00C6                        LEA       $00001722(pc),A0
 60CC                             BRA       $0000162C
 0C10 005F                        CMP.B     #$5F,(A0)
 6700 001E                        BEQ       $00001684(pc)
 1AD0                             MOVE.B    (A0),(A5)+
 5239 00FF0000                    ADDQ.B    #$1,$00FF0000
 1039 00FF002A                    MOVE.B    $00FF002A,D0
 B039 00FF0000                    CMP.B     $00FF0000,D0
 66AE                             BNE       $0000162C
 6100 0F48                        BSR       $000025C8(pc)
 60A8                             BRA       $0000162C
 1AFC 0020                        MOVE.B    #$20,(A5)+
 6100 009A                        BSR       $00001724(pc)
 46FC 2700                        MOVE      #$2700,SR
 2940 0004                        MOVE.L    D0,$0004(A4)
 38B9 00FF0002                    MOVE.W    $00FF0002,(A4)
 46FC 2000                        MOVE      #$2000,SR
 60CA                             BRA       $0000166A
 BBCA                             CMP.L     A2,A5
 6700 FF3E                        BEQ       $000015E2(pc)
 6100 007C                        BSR       $00001724(pc)
 46FC 2700                        MOVE      #$2700,SR
 2940 0004                        MOVE.L    D0,$0004(A4)
 38B9 00FF0002                    MOVE.W    $00FF0002,(A4)
 46FC 2000                        MOVE      #$2000,SR
 207C 00001719                    MOVE.L    #$00001719,A0
 1025                             MOVE.B    -(A5),D0
 B018                             CMP.B     (A0)+,D0
 66FC                             BNE       $000016C4
 5388                             SUBQ.L    #$1,A0
 4A39 00FF0000                    TST.B     $00FF0000
 6700 000C                        BEQ       $000016DE(pc)
 5339 00FF0000                    SUBQ.B    #$1,$00FF0000
 6000 FF50                        BRA       $0000162C(pc)
 13F9 00FF002A 00FF0000           MOVE.B    $00FF002A,$00FF0000
 5339 00FF0000                    SUBQ.B    #$1,$00FF0000
 5339 00FF0001                    SUBQ.B    #$1,$00FF0001
 6000 FF36                        BRA       $0000162C(pc)
 BBCA                             CMP.L     A2,A5
 6700 FEE6                        BEQ       $000015E2(pc)
 4215                             CLR.B     (A5)
 6100 0022                        BSR       $00001724(pc)
 46FC 2700                        MOVE      #$2700,SR
 2940 0004                        MOVE.L    D0,$0004(A4)
 38B9 00FF0002                    MOVE.W    $00FF0002,(A4)
 46FC 2000                        MOVE      #$2000,SR
 4E75                             RTS
 0030 3132 3334                   OR.B      #$32,$33(A0,D2.L)
 3536 3738                        MOVE.W    $37(A6,D4.L),-(A2)
 3900                             MOVE.W    D0,-(A4)
 4280                             CLR.L     D0
 1039 00FF0001                    MOVE.B    $00FF0001,D0
 ED48                             LSL.W     #6,D0
 D039 00FF0000                    ADD.B     $00FF0000,D0
 E788                             LSL.L     #3,D0
 E448                             LSR.W     #2,D0
 4840                             SWAP      D0
 D0B9 00FF001C                    ADD.L     $00FF001C,D0
 4E75                             RTS
 46FC 2700                        MOVE      #$2700,SR
 0280 0000FFFF                    AND.L     #$0000FFFF,D0
 2400                             MOVE.L    D0,D2
 397C 8F02 0004                   MOVE.W    #$8F02,$0004(A4)
 61CE                             BSR       $00001724
 2940 0004                        MOVE.L    D0,$0004(A4)
 4281                             CLR.L     D1
 263C 00002710                    MOVE.L    #$00002710,D3
 283C 00000004                    MOVE.L    #$00000004,D4
 4285                             CLR.L     D5
 84C3                             DIVU      D3,D2
 3202                             MOVE.W    D2,D1
 4A41                             TST.W     D1
 6700 004C                        BEQ       $000017BE(pc)
 2A3C 00000001                    MOVE.L    #$00000001,D5
 0601 0030                        ADD.B     #$30,D1
 D279 00FF0002                    ADD.W     $00FF0002,D1
 3881                             MOVE.W    D1,(A4)
 5239 00FF0000                    ADDQ.B    #$1,$00FF0000
 1239 00FF002A                    MOVE.B    $00FF002A,D1
 B239 00FF0000                    CMP.B     $00FF0000,D1
 6700 0014                        BEQ       $000017AE(pc)
 86FC 000A                        DIVU      #$0A,D3
 4242                             CLR.W     D2
 4842                             SWAP      D2
 51CC FFC4                        DBRA      D4,$0000176A
 46FC 2000                        MOVE      #$2000,SR
 4E75                             RTS
 6100 0E18                        BSR       $000025C8(pc)
 6100 FF70                        BSR       $00001724(pc)
 2940 0004                        MOVE.L    D0,$0004(A4)
 4281                             CLR.L     D1
 60DE                             BRA       $0000179C
 4A85                             TST.L     D5
 66B2                             BNE       $00001774
 4A84                             TST.L     D4
 67AE                             BEQ       $00001774
 60D4                             BRA       $0000179C
 46FC 2700                        MOVE      #$2700,SR
 0280 0000FFFF                    AND.L     #$0000FFFF,D0
 2400                             MOVE.L    D0,D2
 4281                             CLR.L     D1
 263C 00002710                    MOVE.L    #$00002710,D3
 283C 00000004                    MOVE.L    #$00000004,D4
 4285                             CLR.L     D5
 84C3                             DIVU      D3,D2
 3202                             MOVE.W    D2,D1
 4A41                             TST.W     D1
 6700 0026                        BEQ       $00001812(pc)
 2A3C 00000001                    MOVE.L    #$00000001,D5
 0601 0030                        ADD.B     #$30,D1
 D279 00FF0002                    ADD.W     $00FF0002,D1
 3881                             MOVE.W    D1,(A4)
 86FC 000A                        DIVU      #$000A,D3
 4242                             CLR.W     D2
 4842                             SWAP      D2
 51CC FFDA                        DBRA      D4,$000017E4
 46FC 2000                        MOVE      #$2000,SR
 4E75                             RTS
 4A85                             TST.L     D5
 66D8                             BNE       $000017EE
 4A84                             TST.L     D4
 67D4                             BEQ       $000017EE
 60E4                             BRA       $00001800
 46FC 2700                        MOVE      #$2700,SR
 4215                             CLR.B     (A5)
 224B                             MOVE.L    A3,A1
 7200                             MOVEQ     #$00,D1
 2439 00FF001C                    MOVE.L    $00FF001C,D2
 3239 00FF0002                    MOVE.W    $00FF0002,D1
 1839 00FF002A                    MOVE.B    $00FF002A,D4
 397C 8F02 0004                   MOVE.W    #$8F02,$0004(A4)
 1219                             MOVE.B    (A1)+,D1
 6732                             BEQ       $00001874
 7000                             MOVEQ     #$00,D0
 1039 00FF0001                    MOVE.B    $00FF0001,D0
 ED48                             LSL.W     #6,D0
 D039 00FF0000                    ADD.B     $00FF0000,D0
 E788                             LSL.L     #3,D0
 E448                             LSR.W     #2,D0
 4840                             SWAP      D0
 D082                             ADD.L     D2,D0
 2940 0004                        MOVE.L    D0,$0004(A4)
 3881                             MOVE.W    D1,(A4)
 5239 00FF0000                    ADDQ.B    #$1,$00FF0000
 B839 00FF0000                    CMP.B     $00FF0000,D4
 66D0                             BNE       $0000183E
 6100 0D58                        BSR       $000025C8(pc)
 60CA                             BRA       $0000183E
 46FC 2000                        MOVE      #$2000,SR
 2A4B                             MOVE.L    A3,A5
 4E75                             RTS
 4215                             CLR.B     (A5)
 224B                             MOVE.L    A3,A1
 1099                             MOVE.B    (A1)+,(A0)
 41E8 0002                        LEA       $0002(A0),A0
 66F8                             BNE       $00001880
 2A4B                             MOVE.L    A3,A5
 4E75                             RTS
 1AD0                             MOVE.B    (A0),(A5)+
 41E8 0002                        LEA       $0002(A0),A0
 66F8                             BNE       $0000188C
 4225                             CLR.B     -(A5)
 4E75                             RTS
 4215                             CLR.B     (A5)
 224B                             MOVE.L    A3,A1
 3039 00FF0002                    MOVE.W    $00FF0002,D0
 1019                             MOVE.B    (A1)+,D0
 6704                             BEQ       $000018AA
 3880                             MOVE.W    D0,(A4)
 60F8                             BRA       $000018A2
 2A4B                             MOVE.L    A3,A5
 4E75                             RTS
 1018                             MOVE.B    (A0)+,D0
 4A00                             TST.B     D0
 6700 0008                        BEQ       $000018BC(pc)
 6100 0CCA                        BSR       $00002582(pc)
 60F2                             BRA       $000018AE
 4E75                             RTS
 2279 00FF0006                    MOVE.L    $00FF0006,A1
 10DE                             MOVE.B    (A6)+,(A0)+
 66FC                             BNE       $000018C4
 4E75                             RTS
 2279 00FF0006                    MOVE.L    $00FF0006,A1
 1ADE                             MOVE.B    (A6)+,(A5)+
 66FC                             BNE       $000018D0
 4E75                             RTS
 397C 8F01 0004                   MOVE.W    #$8F01,$0004(A4)
 397C 9300 0004                   MOVE.W    #$9300,$0004(A4)
 397C 9404 0004                   MOVE.W    #$9404,$0004(A4)
 397C 9500 0004                   MOVE.W    #$9500,$0004(A4)
 397C 9600 0004                   MOVE.W    #$9600,$0004(A4)
 397C 9780 0004                   MOVE.W    #$9780,$0004(A4)
 297C 68000082 0004               MOVE.L    #$68000082,$0004(A4)
 38BC 0000                        MOVE.W    #$0000,(A4)
 6100 0020                        BSR       $00001928(pc)
 397C 8F02 0004                   MOVE.W    #$8F02,$0004(A4)
 297C 40000010 0004               MOVE.L    #$40000010,$0004(A4)
 203C 00000027                    MOVE.L    #$00000027,D0
 38BC 0000                        MOVE.W    #$0000,(A4)
 51C8 FFFA                        DBRA      D0,$0000191E
 4E75                             RTS
 3F00                             MOVE.W    D0,-(A7)
 302C 0004                        MOVE.W    $0004(A4),D0
 0800 0001                        BTST      #$01,D0
 66F6                             BNE       $0000192A
 301F                             MOVE.W    (A7)+,D0
 4E75                             RTS
 343C 0007                        MOVE.W    #$0007,D2
 207C 00001958                    MOVE.L    #$00001958,A0
 E998                             ROL.L     #4,D0
 4281                             CLR.L     D1
 1200                             MOVE.B    D0,D1
 0201 000F                        AND.B     #$0F,D1
 1AF0 1800                        MOVE.B    $18(A0,D0.W),(A5)+
 51CA FFEA                        DBRA      D2,$0000193C
 4215                             CLR.B     (A5)
 4E75                             RTS
 3031 3233                        MOVE.W    $32(A1,A1.L),D0
 3435 3637                        MOVE.W    $36(A5,A3.L),D2
 3839 41424344                    MOVE.W    $41424344,D4
 4546                             Invalid
 343C 001F                        MOVE.W    #$001F,D2
 123C 0030                        MOVE.B    #$30,D1
 E388                             LSL.L     #1,D0
 6400 0006                        BCC       $0000197A(pc)
 123C 0031                        MOVE.B    #$31,D1
 1AC1                             MOVE.B    D1,(A5)+
 51CA FFEE                        DBRA      D2,$0000196C
 4215                             CLR.B     (A5)
 4E75                             RTS
 46FC 2700                        MOVE      #$2700,SR
 207C 00C00004                    MOVE.L    #$00C00004,A0
 30BC 8F02                        MOVE.W    #$8F02,(A0)
 30BC 93FF                        MOVE.W    #$93FF,(A0)
 30BC 9406                        MOVE.W    #$9406,(A0)
 30BC 9500                        MOVE.W    #$9500,(A0)
 30BC 9600                        MOVE.W    #$9600,(A0)
 30BC 9780                        MOVE.W    #$9780,(A0)
 203C 00000080                    MOVE.L    #$00000080,D0
 D0B9 00FF001C                    ADD.L     $00FF001C,D0
 2080                             MOVE.L    D0,(A0)
 317C 2000 FFFC                   MOVE.W    #$2000,-$0004(A0)
 6100 FF6C                        BSR       $00001928(pc)
 30BC 8F02                        MOVE.W    #$8F02,(A0)
 30BC 93FF                        MOVE.W    #$93FF,(A0)
 30BC 9406                        MOVE.W    #$9406,(A0)
 30BC 9500                        MOVE.W    #$9500,(A0)
 30BC 9600                        MOVE.W    #$9600,(A0)
 30BC 9780                        MOVE.W    #$9780,(A0)
 203C 00010080                    MOVE.L    #$00010080,D0
 D0B9 00FF001C                    ADD.L     $00FF001C,D0
 2080                             MOVE.L    D0,(A0)
 3179 00FF0002 FFFC               MOVE.W    $00FF0002,-$0004(A0)
 6100 FF3A                        BSR       $00001928(pc)
 4279 00FF0000                    CLR.W     $00FF0000
 46FC 2000                        MOVE      #$2000,SR
 4E75                             RTS
 46FC 2700                        MOVE      #$2700,SR
 207C 00C00004                    MOVE.L    #$00C00004,A0
 30BC 8F02                        MOVE.W    #$8F02,(A0)
 30BC 93FF                        MOVE.W    #$93FF,(A0)
 30BC 940F                        MOVE.W    #$940F,(A0)
 30BC 9500                        MOVE.W    #$9500,(A0)
 30BC 9600                        MOVE.W    #$9600,(A0)
 30BC 9780                        MOVE.W    #$9780,(A0)
 2039 00FF001C                    MOVE.L    $00FF001C,D0
 0280 E0000003                    AND.L     #$E0000003,D0
 0680 00000080                    ADD.L     #$00000080,D0
 2F00                             MOVE.L    D0,-(A7)
 2080                             MOVE.L    D0,(A0)
 317C 2000 FFFC                   MOVE.W    #$2000,-$0004(A0)
 6100 FEEC                        BSR       $00001928(pc)
 30BC 8F02                        MOVE.W    #$8F02,(A0)
 30BC 93FF                        MOVE.W    #$93FF,(A0)
 30BC 940F                        MOVE.W    #$940F,(A0)
 30BC 9500                        MOVE.W    #$9500,(A0)
 30BC 9600                        MOVE.W    #$9600,(A0)
 30BC 9780                        MOVE.W    #$9780,(A0)
 201F                             MOVE.L    (A7)+,D0
 0680 00010000                    ADD.L     #$00010000,D0
 2080                             MOVE.L    D0,(A0)
 3179 00FF0002 FFFC               MOVE.W    $00FF0002,-$0004(A0)
 6100 FEBE                        BSR       $00001928(pc)
 4279 00FF0000                    CLR.W     $00FF0000
 46FC 2000                        MOVE      #$2000,SR
 4E75                             RTS
 203C 00008001                    MOVE.L    #$00008001,D0
 397C 8F02 0004                   MOVE.W    #$8F02,$0004(A4)
 297C 6C000002 0004               MOVE.L    #$6C000002,$0004(A4)
 38BC 0000                        MOVE.W    #$0000,(A4)
 3880                             MOVE.W    D0,(A4)
 38BC 0000                        MOVE.W    #$0000,(A4)
 38BC 0000                        MOVE.W    #$0000,(A4)
 5280                             ADDQ.L    #$1,D0
 0C40 8050                        CMP.W     #$8050,D0
 66EA                             BNE       $00001A8C
 38BC 0000                        MOVE.W    #$0000,(A4)
 38BC 8000                        MOVE.W    #$8000,(A4)
 38BC 0000                        MOVE.W    #$0000,(A4)
 38BC 0000                        MOVE.W    #$0000,(A4)
 4E75                             RTS
 46FC 2700                        MOVE      #$2700,SR
 0400 0001                        SUB.B     #$01,D0
 0240 0003                        AND.W     #$0003,D0
 E508                             LSL.B     #2,D0
 D065                             ADD.W     -(A5),D0
 E148                             LSL.W     #8,D0
 4282                             CLR.L     D2
 397C 8F08 0004                   MOVE.W    #$8F08,$0004(A4)
 297C 2C020002 0004               MOVE.L    #$2C020002,$0004(A4)
 3214                             MOVE.W    (A4),D1
 0801 000F                        BTST      #$0F,D1
 6600 0014                        BNE       $00001AF2(pc)
 5282                             ADDQ.L    #$1,D2
 0C02 0050                        CMP.B     #$50,D2
 66EE                             BNE       $00001AD6
 207C 00002CC4                    MOVE.L    #$00002CC4,A0
 6000 1246                        BRA       $00002D36(pc)
 0881 000F                        BCLR      #$0F,D1
 D041                             ADD.W     D1,D0
 2202                             MOVE.L    D2,D1
 E749                             LSL.W     #3,D1
 4841                             SWAP      D1
 397C 8F02 0004                   MOVE.W    #$8F02,$0004(A4)
 0681 6C020002                    ADD.L     #$6C020002,D1
 2941 0004                        MOVE.L    D1,$0004(A4)
 3880                             MOVE.W    D0,(A4)
 46FC 2000                        MOVE      #$2000,SR
 4E75                             RTS
 46FC 2700                        MOVE      #$2700,SR
 E748                             LSL.W     #3,D0
 4840                             SWAP      D0
 397C 8F02 0004                   MOVE.W    #$8F02,$0004(A4)
 0680 2C020002                    ADD.L     #$2C020002,D0
 2940 0004                        MOVE.L    D0,$0004(A4)
 323C 8000                        MOVE.W    #$8000,D1
 3414                             MOVE.W    (A4),D2
 D202                             ADD.B     D2,D1
 397C 8F02 0004                   MOVE.W    #$8F02,$0004(A4)
 0680 3FFE0000                    ADD.L     #$3FFE0000,D0
 2940 0004                        MOVE.L    D0,$0004(A4)
 38BC 0000                        MOVE.W    #$0000,(A4)
 3881                             MOVE.W    D1,(A4)
 38BC 0000                        MOVE.W    #$0000,(A4)
 38BC 0000                        MOVE.W    #$0000,(A4)
 46FC 2000                        MOVE      #$2000,SR
 4E75                             RTS
 5380                             SUBQ.L    #$1,D0
 6500 000A                        BCS       $00001B68(pc)
 1212                             MOVE.B    (A2),D1
 1AC1                             MOVE.B    D1,(A5)+
 51C8 FFFC                        DBRA      D0,$00001B62
 4215                             CLR.B     (A5)
 4E75                             RTS
 0207 0003                        AND.B     #$03,D7
 0C07 0003                        CMP.B     #$03,D7
 6700 0026                        BEQ       $00001B9C(pc)
 4640                             NOT.W     D0
 0007 0004                        OR.B      #$04,D7
 EB0F                             LSL.B     #5,D7
 1200                             MOVE.B    D0,D1
 0201 000F                        AND.B     #$0F,D1
 8207                             OR.B      D7,D1
 13C1 00C00011                    MOVE.B    D1,$00C00011
 E848                             LSR.W     #4,D0
 0200 003F                        AND.B     #$3F,D0
 13C0 00C00011                    MOVE.B    D0,$00C00011
 4E75                             RTS
 0200 0007                        AND.B     #$07,D0
 0000 00E0                        OR.B      #$E0,D0
 13C0 00C00011                    MOVE.B    D0,$00C00011
 4E75                             RTS
 0207 0003                        AND.B     #$03,D7
 EB0F                             LSL.B     #5,D7
 0007 0090                        OR.B      #$90,D7
 4600                             NOT.B     D0
 0200 000F                        AND.B     #$0F,D0
 8007                             OR.B      D7,D0
 13C0 00C00011                    MOVE.B    D0,$00C00011
 4E75                             RTS
 46FC 2700                        MOVE      #$2700,SR
 3425                             MOVE.W    -(A5),D2
 3239 00C00008                    MOVE.W    $00C00008,D1
 E049                             LSR.W     #8,D1
 B441                             CMP.W     D1,D2
 66F4                             BNE       $00001BCC
 342C 0004                        MOVE.W    $0004(A4),D2
 0802 0005                        BTST      #$05,D2
 6600 0016                        BNE       $00001BF8(pc)
 3239 00C00008                    MOVE.W    $00C00008,D1
 E049                             LSR.W     #8,D1
 B041                             CMP.W     D1,D0
 66E8                             BNE       $00001BD8
 4282                             CLR.L     D2
 46FC 2000                        MOVE      #$2000,SR
 4E75                             RTS
 3439 00C00008                    MOVE.W    $00C00008,D2
 0282 0000FF00                    AND.L     #$0000FF00,D2
 E04A                             LSR.W     #8,D2
 46FC 2000                        MOVE      #$2000,SR
 4E75                             RTS
 46FC 2700                        MOVE      #$2700,SR
 397C 8F06 0004                   MOVE.W    #$8F06,$0004(A4)
 E748                             LSL.W     #3,D0
 0680 6C000002                    ADD.L     #$6C000002,D0
 2940 0004                        MOVE.L    D0,$0004(A4)
 38BC 0000                        MOVE.W    #$0000,(A4)
 38BC 0000                        MOVE.W    #$0000,(A4)
 46FC 2000                        MOVE      #$2000,SR
 4E75                             RTS
 46FC 2700                        MOVE      #$2700,SR
 0240 0003                        AND.W     #$0003,D0
 E658                             ROR.W     #3,D0
 D065                             ADD.W     -(A5),D0
 4281                             CLR.L     D1
 3225                             MOVE.W    -(A5),D1
 E749                             LSL.W     #3,D1
 4841                             SWAP      D1
 0681 6C040002                    ADD.L     #$6C040002,D1
 2941 0004                        MOVE.L    D1,$0004(A4)
 4E71                             NOP
 3880                             MOVE.W    D0,(A4)
 46FC 2000                        MOVE      #$2000,SR
 4E75                             RTS
 46FC 2700                        MOVE      #$2700,SR
 3225                             MOVE.W    -(A5),D1
 4282                             CLR.L     D2
 3425                             MOVE.W    -(A5),D2
 E74A                             LSL.W     #3,D2
 4842                             SWAP      D2
 397C 8F06 0004                   MOVE.W    #$8F06,$0004(A4)
 0682 2C000002                    ADD.L     #$2C000002,D2
 2942 0004                        MOVE.L    D2,$0004(A4)
 4E71                             NOP
 D054                             ADD.W     (A4),D0
 0240 03FF                        AND.W     #$03FF,D0
 4E71                             NOP
 D254                             ADD.W     (A4),D1
 0241 03FF                        AND.W     #$03FF,D1
 0682 40000000                    ADD.L     #$40000000,D2
 2942 0004                        MOVE.L    D2,$0004(A4)
 4E71                             NOP
 3880                             MOVE.W    D0,(A4)
 4E71                             NOP
 3881                             MOVE.W    D1,(A4)
 46FC 2000                        MOVE      #$2000,SR
 4E75                             RTS
 46FC 2700                        MOVE      #$2700,SR
 E748                             LSL.W     #3,D0
 4840                             SWAP      D0
 0680 2C000002                    ADD.L     #$2C000002,D0
 2940 0004                        MOVE.L    D0,$0004(A4)
 4E71                             NOP
 4282                             CLR.L     D2
 3414                             MOVE.W    (A4),D2
 46FC 2000                        MOVE      #$2000,SR
 4E75                             RTS
 46FC 2700                        MOVE      #$2700,SR
 E748                             LSL.W     #3,D0
 4840                             SWAP      D0
 0680 2C060002                    ADD.L     #$2C060002,D0
 2940 0004                        MOVE.L    D0,$0004(A4)
 4E71                             NOP
 4282                             CLR.L     D2
 3414                             MOVE.W    (A4),D2
 46FC 2000                        MOVE      #$2000,SR
 4E75                             RTS
 46FC 2700                        MOVE      #$2700,SR
 397C 8F00 0004                   MOVE.W    #$8F00,$0004(A4)
 4284                             CLR.L     D4
 3825                             MOVE.W    -(A5),D4
 3225                             MOVE.W    -(A5),D1
 4282                             CLR.L     D2
 3425                             MOVE.W    -(A5),D2
 E30A                             LSL.B     #1,D2
 3A25                             MOVE.W    -(A5),D5
 E61D                             ROR.B     #3,D5
 D405                             ADD.B     D5,D2
 4842                             SWAP      D2
 2602                             MOVE.L    D2,D3
 0603 0020                        ADD.B     #$20,D3
 0682 C0000000                    ADD.L     #$C0000000,D2
 3A00                             MOVE.W    D0,D5
 2004                             MOVE.L    D4,D0
 6100 F35A                        BSR       $00001064(pc)
 2943 0004                        MOVE.L    D3,$0004(A4)
 4E71                             NOP
 3014                             MOVE.W    (A4),D0
 D041                             ADD.W     D1,D0
 2942 0004                        MOVE.L    D2,$0004(A4)
 4E71                             NOP
 3880                             MOVE.W    D0,(A4)
 0445 0001                        SUB.W     #$0001,D5
 66E2                             BNE       $00001D06
 46FC 2000                        MOVE      #$2000,SR
 4215                             CLR.B     (A5)
 4E75                             RTS
 225F                             MOVE.L    (A7)+,A1
 220F                             MOVE.L    A7,D1
 3F18                             MOVE.W    (A0)+,-(A7)
 4A17                             TST.B     (A7)
 6700 0008                        BEQ       $00001D3E(pc)
 4A2F 0001                        TST.B     $0001(A7)
 66F2                             BNE       $00001D30
 2F01                             MOVE.L    D1,-(A7)
 4ED1                             JMP       (A1)
 245F                             MOVE.L    (A7)+,A2
 225F                             MOVE.L    (A7)+,A1
 200F                             MOVE.L    A7,D0
 2E49                             MOVE.L    A1,A7
 30E1                             MOVE.W    -(A1),(A0)+
 B089                             CMP.L     A1,D0
 66FA                             BNE       $00001D4A
 4ED2                             JMP       (A2)
 3AD8                             MOVE.W    (A0)+,(A5)+
 4A2D FFFF                        TST.B     -$0001(A5)
 6700 0008                        BEQ       $00001D62(pc)
 4A2D FFFE                        TST.B     -$0002(A5)
 66F0                             BNE       $00001D52
 4E75                             RTS
 30DA                             MOVE.W    (A2)+,(A0)+
 4A2A FFFF                        TST.B     -$0001(A2)
 6700 0008                        BEQ       $00001D74(pc)
 4A2A FFFE                        TST.B     -$0002(A2)
 66F0                             BNE       $00001D64
 4E75                             RTS
 4A1D                             TST.B     (A5)+
 6700 0008                        BEQ       $00001D82(pc)
 4A1D                             TST.B     (A5)+
 66F6                             BNE       $00001D76
 4E75                             RTS
 4BED 0001                        LEA       $0001(A5),A5
 4E75                             RTS
 528D                             ADDQ.L    #$1,A5
 421D                             CLR.B     (A5)+
 200D                             MOVE.L    A5,D0
 0280 FFFFFFFE                    AND.L     #$FFFFFFFE,D0
 2A40                             MOVE.L    D0,A5
 4E75                             RTS
 200D                             MOVE.L    A5,D0
 0800 0000                        BTST      #$00,D0
 6700 0006                        BEQ       $00001DA6(pc)
 1AFC 0020                        MOVE.B    #$20,(A5)+
 4E75                             RTS
 46FC 2700                        MOVE      #$2700,SR
 397C 8F00 0004                   MOVE.W    #$8F00,$0004(A4)
 4284                             CLR.L     D4
 3825                             MOVE.W    -(A5),D4
 3225                             MOVE.W    -(A5),D1
 4282                             CLR.L     D2
 3425                             MOVE.W    -(A5),D2
 E30A                             LSL.B     #1,D2
 3A25                             MOVE.W    -(A5),D5
 E61D                             ROR.B     #3,D5
 D405                             ADD.B     D5,D2
 4842                             SWAP      D2
 2602                             MOVE.L    D2,D3
 0603 0020                        ADD.B     #$20,D3
 0682 C0000000                    ADD.L     #$C0000000,D2
 3A00                             MOVE.W    D0,D5
 2004                             MOVE.L    D4,D0
 6100 F28C                        BSR       $00001064(pc)
 2943 0004                        MOVE.L    D3,$0004(A4)
 4E71                             NOP
 3014                             MOVE.W    (A4),D0
 9041                             SUB.W     D1,D0
 2942 0004                        MOVE.L    D2,$0004(A4)
 4E71                             NOP
 3880                             MOVE.W    D0,(A4)
 0445 0001                        SUB.W     #$0001,D5
 66E2                             BNE       $00001DD4
 46FC 2000                        MOVE      #$2000,SR
 4215                             CLR.B     (A5)
 4E75                             RTS
 207C 00001E2C                    MOVE.L    #$00001E2C,A0
 4282                             CLR.L     D2
 4283                             CLR.L     D3
 224A                             MOVE.L    A2,A1
 BBC9                             CMP.L     A1,A5
 6700 0020                        BEQ       $00001E2A(pc)
 1625                             MOVE.B    -(A5),D3
 0C03 0030                        CMP.B     #$30,D3
 65F2                             BCS       $00001E06
 0C03 0039                        CMP.B     #$39,D3
 62EC                             BHI       $00001E06
 0403 0030                        SUB.B     #$30,D3
 E50B                             LSL.B     #2,D3
 D4B0 3800                        ADD.L     $38(A0,D0.W),D2
 41E8 0028                        LEA       $0028(A0),A0
 60DC                             BRA       $00001E06
 4E75                             RTS
 0000 0000                        OR.B      #$00,D0
 0000 0001                        OR.B      #$01,D0
 0000 0002                        OR.B      #$02,D0
 0000 0003                        OR.B      #$03,D0
 0000 0004                        OR.B      #$04,D0
 0000 0005                        OR.B      #$05,D0
 0000 0006                        OR.B      #$06,D0
 0000 0007                        OR.B      #$07,D0
 0000 0008                        OR.B      #$08,D0
 0000 0009                        OR.B      #$09,D0
 0000 0000                        OR.B      #$00,D0
 0000 000A                        OR.B      #$0A,D0
 0000 0014                        OR.B      #$14,D0
 0000 001E                        OR.B      #$1E,D0
 0000 0028                        OR.B      #$28,D0
 0000 0032                        OR.B      #$32,D0
 0000 003C                        OR.B      #$3C,D0
 0000 0046                        OR.B      #$46,D0
 0000 0050                        OR.B      #$50,D0
 0000 005A                        OR.B      #$5A,D0
 0000 0000                        OR.B      #$00,D0
 0000 0064                        OR.B      #$64,D0
 0000 00C8                        OR.B      #$C8,D0
 0000 012C                        OR.B      #$2C,D0
 0000 0190                        OR.B      #$90,D0
 0000 01F4                        OR.B      #$F4,D0
 0000 0258                        OR.B      #$58,D0
 0000 02BC                        OR.B      #$BC,D0
 0000 0320                        OR.B      #$20,D0
 0000 0384                        OR.B      #$84,D0
 0000 0000                        OR.B      #$00,D0
 0000 03E8                        OR.B      #$E8,D0
 0000 07D0                        OR.B      #$D0,D0
 0000 0BB8                        OR.B      #$B8,D0
 0000 0FA0                        OR.B      #$A0,D0
 0000 1388                        OR.B      #$88,D0
 0000 1770                        OR.B      #$70,D0
 0000 1B58                        OR.B      #$58,D0
 0000 1F40                        OR.B      #$40,D0
 0000 2328                        OR.B      #$28,D0
 0000 0000                        OR.B      #$00,D0
 0000 2710                        OR.B      #$10,D0
 0000 4E20                        OR.B      #$20,D0
 0000 7530                        OR.B      #$30,D0
 0000 9C40                        OR.B      #$40,D0
 0000 C350                        OR.B      #$50,D0
 0000 EA60                        OR.B      #$60,D0
 0001 1170                        OR.B      #$70,D1
 0001 3880                        OR.B      #$80,D1
 0001 5F90                        OR.B      #$90,D1
 0000 0000                        OR.B      #$00,D0
 0001 86A0                        OR.B      #$A0,D1
 0003 0D40                        OR.B      #$40,D3
 0004 93E0                        OR.B      #$E0,D4
 0006 1A80                        OR.B      #$80,D6
 0007 A120                        OR.B      #$20,D7
 0009 27C0                        OR.B      #$C0,A1
 000A AE60                        OR.B      #$60,A2
 000C 3500                        OR.B      #$00,A4
 000D BBA0                        OR.B      #$A0,A5
 0000 0000                        OR.B      #$00,D0
 000F 4240                        OR.B      #$40,A7
 001E 8480                        OR.B      #$80,(A6)+
 002D C6C0 003D                   OR.B      #$C0,$003D(A5)
 0900                             BTST      D4,D0
 004C 4B40                        OR.W      #$4B40,A4
 005B 8D80                        OR.W      #$8D80,(A3)+
 006A CFC0 007A                   OR.W      #$CFC0,$007A(A2)
 1200                             MOVE.B    D0,D1
 0089 54400000                    OR.L      #$54400000,A1
 0000 0098                        OR.B      #$98,D0
 9680                             SUB.L     D0,D3
 0131 2D00                        BTST      D0,$2D(A1,D0.W)
 01C9 C380                        MOVEP.L   D0,-$3C80(A1)
 0262 5A00                        AND.W     #$5A00,-(A2)
 02FA                             Invalid
 F080                             Invalid
 0393                             BCLR      D1,(A3)
 8700                             Invalid
 042C 1D80 04C4                   SUB.B     #$80,$04C4(A4)
 B400                             CMP.B     D0,D2
 055D                             BCHG      D2,(A5)+
 4A80                             TST.L     D0
 0000 0000                        OR.B      #$00,D0
 05F5 E100                        BSET      D2,$E1(A5,D0.W)
 0BEB C200                        BSET      D5,-$3E00(A3)
 11E1 A300                        MOVE.B    -(A1),$A300
 17D7 8400                        MOVE.B    (A7),+$84(D0.W)
 1DCD                             MOVE.B    A5,
 6500 23C3                        BCS       $00004347(pc)
 4600                             NOT.B     D0
 29B9 27002FAF 0800               MOVE.L    $27002FAF,$08(A4,D0.W)
 35A4 E900                        MOVE.W    -(A4),$E9(A2,D0.W)
 0000 0000                        OR.B      #$00,D0
 3B9A CA00                        MOVE.W    (A2)+,$CA(A5,D0.W)
 7735                             MOVEQ     #$35,D3
 9400                             SUB.B     D0,D2
 B2D0                             CMP.W     (A0),A1
 5E00                             ADDQ.B    #$7,D0
 EE6B                             LSR.W     D7,D3
 2800                             MOVE.L    D0,D4
 41FA 0034                        LEA       $00001FDE(pc),A0
 143C 0030                        MOVE.B    #$30,D2
 4A90                             TST.L     (A0)
 6700 001C                        BEQ       $00001FD0(pc)
 123C 0030                        MOVE.B    #$30,D1
 9090                             SUB.L     (A0),D0
 6500 0006                        BCS       $00001FC4(pc)
 5281                             ADDQ.L    #$1,D1
 60F6                             BRA       $00001FBA
 D098                             ADD.L     (A0)+,D0
 B202                             CMP.B     D2,D1
 67E6                             BEQ       $00001FB0
 4202                             CLR.B     D2
 1AC1                             MOVE.B    D1,(A5)+
 60E0                             BRA       $00001FB0
 BBCA                             CMP.L     A2,A5
 6600 0006                        BNE       $00001FDA(pc)
 1AFC 0030                        MOVE.B    #$30,(A5)+
 4215                             CLR.B     (A5)
 4E75                             RTS
 3B9A CA00                        MOVE.W    (A2)+,$CA(A5,D0.W)
 05F5 E100                        BSET      D2,$E1(A5,D0.W)
 0098 9680000F                    OR.L      #$9680000F,(A0)+
 4240                             CLR.W     D0
 0001 86A0                        OR.B      #$A0,D1
 0000 2710                        OR.B      #$10,D0
 0000 03E8                        OR.B      #$E8,D0
 0000 0064                        OR.B      #$64,D0
 0000 000A                        OR.B      #$0A,D0
 0000 0001                        OR.B      #$01,D0
 0000 0000                        OR.B      #$00,D0
 41FA FFD2                        LEA       $00001FDE(pc),A0
 1439 00FF0000                    MOVE.B    $00FF0000,D2
 4A90                             TST.L     (A0)
 6700 003C                        BEQ       $00002054(pc)
 4201                             CLR.B     D1
 9090                             SUB.L     (A0),D0
 6500 0006                        BCS       $00002026(pc)
 5201                             ADDQ.B    #$1,D1
 60F6                             BRA       $0000201C
 D090                             ADD.L     (A0),D0
 41E8 0004                        LEA       $0004(A0),A0
 4A01                             TST.B     D1
 6600 0010                        BNE       $00002040(pc)
 4A90                             TST.L     (A0)
 6700 000A                        BEQ       $00002040(pc)
 B439 00FF0000                    CMP.B     $00FF0000,D2
 67D4                             BEQ       $00002014
 2F00                             MOVE.L    D0,-(A7)
 4280                             CLR.L     D0
 1001                             MOVE.B    D1,D0
 0680 00000030                    ADD.L     #$00000030,D0
 6100 0534                        BSR       $00002582(pc)
 201F                             MOVE.L    (A7)+,D0
 60C0                             BRA       $00002014
 4E75                             RTS
 41FA FF86                        LEA       $00001FDE(pc),A0
 4202                             CLR.B     D2
 4A90                             TST.L     (A0)
 6700 003E                        BEQ       $0000209E(pc)
 4201                             CLR.B     D1
 9090                             SUB.L     (A0),D0
 6500 0006                        BCS       $0000206E(pc)
 5201                             ADDQ.B    #$1,D1
 60F6                             BRA       $00002064
 D090                             ADD.L     (A0),D0
 41E8 0004                        LEA       $0004(A0),A0
 4A01                             TST.B     D1
 6600 000C                        BNE       $00002084(pc)
 4A90                             TST.L     (A0)
 6700 0006                        BEQ       $00002084(pc)
 4A02                             TST.B     D2
 67D8                             BEQ       $0000205C
 143C 0001                        MOVE.B    #$01,D2
 2F00                             MOVE.L    D0,-(A7)
 3039 00FF0002                    MOVE.W    $00FF0002,D0
 1001                             MOVE.B    D1,D0
 0680 00000030                    ADD.L     #$00000030,D0
 3880                             MOVE.W    D0,(A4)
 201F                             MOVE.L    (A7)+,D0
 60BE                             BRA       $0000205C
 4E75                             RTS
 46FC 2700                        MOVE      #$2700,SR
 3225                             MOVE.W    -(A5),D1
 4282                             CLR.L     D2
 3425                             MOVE.W    -(A5),D2
 E74A                             LSL.W     #3,D2
 4842                             SWAP      D2
 397C 8F06 0004                   MOVE.W    #$8F06,$0004(A4)
 0682 6C000002                    ADD.L     #$6C000002,D2
 2942 0004                        MOVE.L    D2,$0004(A4)
 4E71                             NOP
 3880                             MOVE.W    D0,(A4)
 4E71                             NOP
 3881                             MOVE.W    D1,(A4)
 46FC 2000                        MOVE      #$2000,SR
 4E75                             RTS
 46FC 2700                        MOVE      #$2700,SR
 397C 8F02 0004                   MOVE.W    #$8F02,$0004(A4)
 4281                             CLR.L     D1
 4282                             CLR.L     D2
 4283                             CLR.L     D3
 4284                             CLR.L     D4
 4285                             CLR.L     D5
 3800                             MOVE.W    D0,D4
 0444 0001                        SUB.W     #$0001,D4
 3425                             MOVE.W    -(A5),D2
 0442 0001                        SUB.W     #$0001,D2
 3225                             MOVE.W    -(A5),D1
 3625                             MOVE.W    -(A5),D3
 0241 003F                        AND.W     #$003F,D1
 0243 003F                        AND.W     #$003F,D3
 ED89                             LSL.L     #6,D1
 D283                             ADD.L     D3,D1
 E789                             LSL.L     #3,D1
 E449                             LSR.W     #2,D1
 4841                             SWAP      D1
 D2B9 00FF0020                    ADD.L     $00FF0020,D1
 3E25                             MOVE.W    -(A5),D7
 DE79 00FF0002                    ADD.W     $00FF0002,D7
 2065                             MOVE.L    -(A5),A0
 2941 0004                        MOVE.L    D1,$0004(A4)
 0681 00800000                    ADD.L     #$00800000,D1
 2602                             MOVE.L    D2,D3
 4240                             CLR.W     D0
 1018                             MOVE.B    (A0)+,D0
 D047                             ADD.W     D7,D0
 3880                             MOVE.W    D0,(A4)
 51CB FFF6                        DBRA      D3,$0000211E
 51CC FFE6                        DBRA      D4,$00002112
 46FC 2000                        MOVE      #$2000,SR
 4E75                             RTS
 46FC 2700                        MOVE      #$2700,SR
 397C 8F02 0004                   MOVE.W    #$8F02,$0004(A4)
 4281                             CLR.L     D1
 4282                             CLR.L     D2
 4283                             CLR.L     D3
 4284                             CLR.L     D4
 4285                             CLR.L     D5
 3800                             MOVE.W    D0,D4
 0444 0001                        SUB.W     #$0001,D4
 3425                             MOVE.W    -(A5),D2
 0442 0001                        SUB.W     #$0001,D2
 3225                             MOVE.W    -(A5),D1
 3625                             MOVE.W    -(A5),D3
 0241 003F                        AND.W     #$003F,D1
 0243 003F                        AND.W     #$003F,D3
 ED89                             LSL.L     #6,D1
 D283                             ADD.L     D3,D1
 E789                             LSL.L     #3,D1
 E449                             LSR.W     #2,D1
 4841                             SWAP      D1
 D2B9 00FF0020                    ADD.L     $00FF0020,D1
 3E25                             MOVE.W    -(A5),D7
 DE79 00FF0002                    ADD.W     $00FF0002,D7
 2065                             MOVE.L    -(A5),A0
 2941 0004                        MOVE.L    D1,$0004(A4)
 2602                             MOVE.L    D2,D3
 0685 00020000                    ADD.L     #$00020000,D5
 4240                             CLR.W     D0
 1018                             MOVE.B    (A0)+,D0
 6700 001C                        BEQ       $000021A8(pc)
 D047                             ADD.W     D7,D0
 3880                             MOVE.W    D0,(A4)
 51CB FFEC                        DBRA      D3,$00002180
 0681 00800000                    ADD.L     #$00800000,D1
 4285                             CLR.L     D5
 51CC FFDA                        DBRA      D4,$0000217A
 46FC 2000                        MOVE      #$2000,SR
 4E75                             RTS
 2C01                             MOVE.L    D1,D6
 DC85                             ADD.L     D5,D6
 2946 0004                        MOVE.L    D6,$0004(A4)
 60E0                             BRA       $00002192
 46FC 2700                        MOVE      #$2700,SR
 397C 8F02 0004                   MOVE.W    #$8F02,$0004(A4)
 4281                             CLR.L     D1
 4282                             CLR.L     D2
 4283                             CLR.L     D3
 4284                             CLR.L     D4
 4285                             CLR.L     D5
 3800                             MOVE.W    D0,D4
 3425                             MOVE.W    -(A5),D2
 0442 0001                        SUB.W     #$0001,D2
 3225                             MOVE.W    -(A5),D1
 3625                             MOVE.W    -(A5),D3
 0241 003F                        AND.W     #$003F,D1
 0243 003F                        AND.W     #$003F,D3
 ED89                             LSL.L     #6,D1
 D283                             ADD.L     D3,D1
 E789                             LSL.L     #3,D1
 E449                             LSR.W     #2,D1
 4841                             SWAP      D1
 D2B9 00FF0020                    ADD.L     $00FF0020,D1
 3025                             MOVE.W    -(A5),D0
 D079 00FF0002                    ADD.W     $00FF0002,D0
 3A04                             MOVE.W    D4,D5
 3C00                             MOVE.W    D0,D6
 0444 0001                        SUB.W     #$0001,D4
 2941 0004                        MOVE.L    D1,$0004(A4)
 0681 00800000                    ADD.L     #$00800000,D1
 2602                             MOVE.L    D2,D3
 3880                             MOVE.W    D0,(A4)
 D045                             ADD.W     D5,D0
 51CB FFFA                        DBRA      D3,$00002206
 0646 0001                        ADD.W     #$0001,D6
 3006                             MOVE.W    D6,D0
 51CC FFE4                        DBRA      D4,$000021FA
 46FC 2000                        MOVE      #$2000,SR
 4E75                             RTS
 46FC 2700                        MOVE      #$2700,SR
 397C 8F02 0004                   MOVE.W    #$8F02,$0004(A4)
 4281                             CLR.L     D1
 4282                             CLR.L     D2
 4283                             CLR.L     D3
 4284                             CLR.L     D4
 4285                             CLR.L     D5
 3800                             MOVE.W    D0,D4
 0444 0001                        SUB.W     #$0001,D4
 3425                             MOVE.W    -(A5),D2
 0442 0001                        SUB.W     #$0001,D2
 3225                             MOVE.W    -(A5),D1
 3625                             MOVE.W    -(A5),D3
 0241 003F                        AND.W     #$003F,D1
 0243 003F                        AND.W     #$003F,D3
 ED89                             LSL.L     #6,D1
 D283                             ADD.L     D3,D1
 E789                             LSL.L     #3,D1
 E449                             LSR.W     #2,D1
 4841                             SWAP      D1
 D2B9 00FF0020                    ADD.L     $00FF0020,D1
 3025                             MOVE.W    -(A5),D0
 D079 00FF0002                    ADD.W     $00FF0002,D0
 2941 0004                        MOVE.L    D1,$0004(A4)
 0681 00800000                    ADD.L     #$00800000,D1
 2602                             MOVE.L    D2,D3
 3880                             MOVE.W    D0,(A4)
 0640 0001                        ADD.W     #$0001,D0
 51CB FFF8                        DBRA      D3,$0000226E
 51CC FFE8                        DBRA      D4,$00002262
 46FC 2000                        MOVE      #$2000,SR
 4E75                             RTS
 46FC 2700                        MOVE      #$2700,SR
 4281                             CLR.L     D1
 3225                             MOVE.W    -(A5),D1
 C141                             Invalid
 ED49                             LSL.W     #6,D1
 D041                             ADD.W     D1,D0
 E788                             LSL.L     #3,D0
 E448                             LSR.W     #2,D0
 4840                             SWAP      D0
 D0B9 00FF0020                    ADD.L     $00FF0020,D0
 2940 0004                        MOVE.L    D0,$0004(A4)
 4280                             CLR.L     D0
 3025                             MOVE.W    -(A5),D0
 D079 00FF0002                    ADD.W     $00FF0002,D0
 3880                             MOVE.W    D0,(A4)
 46FC 2000                        MOVE      #$2000,SR
 4E75                             RTS
 46FC 2700                        MOVE      #$2700,SR
 3225                             MOVE.W    -(A5),D1
 C141                             Invalid
 ED49                             LSL.W     #6,D1
 D041                             ADD.W     D1,D0
 E788                             LSL.L     #3,D0
 E448                             LSR.W     #2,D0
 4840                             SWAP      D0
 D0B9 00FF0020                    ADD.L     $00FF0020,D0
 0480 40000000                    SUB.L     #$40000000,D0
 2940 0004                        MOVE.L    D0,$0004(A4)
 4282                             CLR.L     D2
 3414                             MOVE.W    (A4),D2
 46FC 2000                        MOVE      #$2000,SR
 4E75                             RTS
 D479 00FF0024                    ADD.W     $00FF0024,D2
 4842                             SWAP      D2
 0682 00000010                    ADD.L     #$00000010,D2
 2942 0004                        MOVE.L    D2,$0004(A4)
 4E71                             NOP
 3214                             MOVE.W    (A4),D1
 D240                             ADD.W     D0,D1
 0682 40000000                    ADD.L     #$40000000,D2
 2942 0004                        MOVE.L    D2,$0004(A4)
 4E71                             NOP
 3881                             MOVE.W    D1,(A4)
 4E75                             RTS
 D479 00FF0024                    ADD.W     $00FF0024,D2
 4842                             SWAP      D2
 0682 00000010                    ADD.L     #$00000010,D2
 2942 0004                        MOVE.L    D2,$0004(A4)
 4E71                             NOP
 3214                             MOVE.W    (A4),D1
 9240                             SUB.W     D0,D1
 0682 40000000                    ADD.L     #$40000000,D2
 2942 0004                        MOVE.L    D2,$0004(A4)
 4E71                             NOP
 3881                             MOVE.W    D1,(A4)
 4E75                             RTS
 D479 00FF0024                    ADD.W     $00FF0024,D2
 4842                             SWAP      D2
 0682 28000002                    ADD.L     #$28000002,D2
 2942 0004                        MOVE.L    D2,$0004(A4)
 4E71                             NOP
 3214                             MOVE.W    (A4),D1
 4E71                             NOP
 0682 40000000                    ADD.L     #$40000000,D2
 2942 0004                        MOVE.L    D2,$0004(A4)
 9240                             SUB.W     D0,D1
 3881                             MOVE.W    D1,(A4)
 4E75                             RTS
 D479 00FF0024                    ADD.W     $00FF0024,D2
 4842                             SWAP      D2
 0682 28000002                    ADD.L     #$28000002,D2
 2942 0004                        MOVE.L    D2,$0004(A4)
 4E71                             NOP
 3214                             MOVE.W    (A4),D1
 4E71                             NOP
 0682 40000000                    ADD.L     #$40000000,D2
 2942 0004                        MOVE.L    D2,$0004(A4)
 D240                             ADD.W     D0,D1
 3881                             MOVE.W    D1,(A4)
 4E75                             RTS
 D479 00FF0024                    ADD.W     $00FF0024,D2
 4842                             SWAP      D2
 0682 40000010                    ADD.L     #$40000010,D2
 2942 0004                        MOVE.L    D2,$0004(A4)
 4E71                             NOP
 3880                             MOVE.W    D0,(A4)
 4E75                             RTS
 D479 00FF0024                    ADD.W     $00FF0024,D2
 4842                             SWAP      D2
 0682 68000002                    ADD.L     #$68000002,D2
 2942 0004                        MOVE.L    D2,$0004(A4)
 3880                             MOVE.W    D0,(A4)
 4E75                             RTS
 247C 00FF0030                    MOVE.L    #$00FF0030,A2
 46FC 2700                        MOVE      #$2700,SR
 397C 8F02 0004                   MOVE.W    #$8F02,$0004(A4)
 2052                             MOVE.L    (A2),A0
 2206                             MOVE.L    D6,D1
 D26A 000A                        ADD.W     $000A(A2),D1
 C2EA 0004                        MULU      $0004(A2),D1
 D281                             ADD.L     D1,D1
 2405                             MOVE.L    D5,D2
 D46A 0008                        ADD.W     $0008(A2),D2
 D282                             ADD.L     D2,D1
 E689                             LSR.L     #3,D1
 0201 00FE                        AND.B     #$FE,D1
 D1C1                             ADD.L     D1,A0
 2206                             MOVE.L    D6,D1
 D26A 000E                        ADD.W     $000E(A2),D1
 0241 01F0                        AND.W     #$01F0,D1
 3801                             MOVE.W    D1,D4
 E949                             LSL.W     #4,D1
 2405                             MOVE.L    D5,D2
 D46A 000C                        ADD.W     $000C(A2),D2
 0242 01F0                        AND.W     #$01F0,D2
 3602                             MOVE.W    D2,D3
 E44A                             LSR.W     #2,D2
 D282                             ADD.L     D2,D1
 4841                             SWAP      D1
 D2AA 0010                        ADD.L     $0010(A2),D1
 D647                             ADD.W     D7,D3
 6500 0004                        BCS       $00002406(pc)
 7600                             MOVEQ     #$00,D3
 2248                             MOVE.L    A0,A1
 D0EA 0004                        ADD.W     $0004(A2),A0
 D0EA 0004                        ADD.W     $0004(A2),A0
 2941 0004                        MOVE.L    D1,$0004(A4)
 0681 00800000                    ADD.L     #$00800000,D1
 2400                             MOVE.L    D0,D2
 5382                             SUBQ.L    #$1,D2
 6500 0006                        BCS       $00002426(pc)
 3899                             MOVE.W    (A1)+,(A4)
 60F6                             BRA       $0000241C
 51CA FFF4                        DBRA      D2,$0000241C
 51CF FFDA                        DBRA      D7,$00002406
 46FC 2000                        MOVE      #$2000,SR
 4E75                             RTS
 247C 00FF0030                    MOVE.L    #$00FF0030,A2
 46FC 2700                        MOVE      #$2700,SR
 302A 0008                        MOVE.W    $0008(A2),D0
 5240                             ADDQ.W    #$1,D0
 322A 0004                        MOVE.W    $0004(A2),D1
 0441 0028                        SUB.W     #$0028,D1
 E749                             LSL.W     #3,D1
 B240                             CMP.W     D0,D1
 6300 0036                        BLS       $00002488(pc)
 322A 000C                        MOVE.W    $000C(A2),D1
 5241                             ADDQ.W    #$1,D1
 0241 01FF                        AND.W     #$01FF,D1
 3541 000C                        MOVE.W    D1,$000C(A2)
 296A 0014 0004                   MOVE.L    $0014(A2),$0004(A4)
 0A41 01FF                        EOR.W     #$01FF,D1
 3881                             MOVE.W    D1,(A4)
 3540 0008                        MOVE.W    D0,$0008(A2)
 0240 0007                        AND.W     #$0007,D0
 6600 0010                        BNE       $00002488(pc)
 2A3C 00000140                    MOVE.L    #$00000140,D5
 7C00                             MOVEQ     #$00,D6
 7E00                             MOVEQ     #$00,D7
 700F                             MOVEQ     #$0F,D0
 60AC                             BRA       $00002434
 46FC 2000                        MOVE      #$2000,SR
 4E75                             RTS
 247C 00FF0030                    MOVE.L    #$00FF0030,A2
 46FC 2700                        MOVE      #$2700,SR
 302A 0008                        MOVE.W    $0008(A2),D0
 5340                             SUBQ.W    #$1,D0
 6500 0038                        BCS       $000024D8(pc)
 322A 000C                        MOVE.W    $000C(A2),D1
 5341                             SUBQ.W    #$1,D1
 0241 01FF                        AND.W     #$01FF,D1
 3541 000C                        MOVE.W    D1,$000C(A2)
 296A 0014 0004                   MOVE.L    $0014(A2),$0004(A4)
 0A41 01FF                        EOR.W     #$01FF,D1
 3881                             MOVE.W    D1,(A4)
 3540 0008                        MOVE.W    D0,$0008(A2)
 0240 0007                        AND.W     #$0007,D0
 0C40 0007                        CMP.W     #$0007,D0
 6600 000E                        BNE       $000024D8(pc)
 7A00                             MOVEQ     #$00,D5
 7C00                             MOVEQ     #$00,D6
 7E00                             MOVEQ     #$00,D7
 700F                             MOVEQ     #$0F,D0
 6000 FF5E                        BRA       $00002434(pc)
 46FC 2000                        MOVE      #$2000,SR
 4E75                             RTS
 247C 00FF0030                    MOVE.L    #$00FF0030,A2
 46FC 2700                        MOVE      #$2700,SR
 302A 000A                        MOVE.W    $000A(A2),D0
 5240                             ADDQ.W    #$1,D0
 322A 0006                        MOVE.W    $0006(A2),D1
 0441 001E                        SUB.W     #$001E,D1
 E749                             LSL.W     #3,D1
 B240                             CMP.W     D0,D1
 6300 0034                        BLS       $00002530(pc)
 322A 000E                        MOVE.W    $000E(A2),D1
 5241                             ADDQ.W    #$1,D1
 0241 01FF                        AND.W     #$01FF,D1
 3541 000E                        MOVE.W    D1,$000E(A2)
 296A 0018 0004                   MOVE.L    $0018(A2),$0004(A4)
 3881                             MOVE.W    D1,(A4)
 3540 000A                        MOVE.W    D0,$000A(A2)
 0240 0007                        AND.W     #$0007,D0
 6600 0012                        BNE       $00002530(pc)
 7A00                             MOVEQ     #$00,D5
 2C3C 000000F0                    MOVE.L    #$000000F0,D6
 7E29                             MOVEQ     #$29,D7
 7000                             MOVEQ     #$00,D0
 6000 FF06                        BRA       $00002434(pc)
 46FC 2000                        MOVE      #$2000,SR
 4E75                             RTS
 247C 00FF0030                    MOVE.L    #$00FF0030,A2
 46FC 2700                        MOVE      #$2700,SR
 302A 000A                        MOVE.W    $000A(A2),D0
 5340                             SUBQ.W    #$1,D0
 6500 0034                        BCS       $0000257C(pc)
 322A 000E                        MOVE.W    $000E(A2),D1
 5341                             SUBQ.W    #$1,D1
 0241 01FF                        AND.W     #$01FF,D1
 3541 000E                        MOVE.W    D1,$000E(A2)
 296A 0018 0004                   MOVE.L    $0018(A2),$0004(A4)
 3881                             MOVE.W    D1,(A4)
 3540 000A                        MOVE.W    D0,$000A(A2)
 0240 0007                        AND.W     #$0007,D0
 0C40 0007                        CMP.W     #$0007,D0
 6600 000E                        BNE       $0000257C(pc)
 7A00                             MOVEQ     #$00,D5
 7C00                             MOVEQ     #$00,D6
 7E29                             MOVEQ     #$29,D7
 7000                             MOVEQ     #$00,D0
 6000 FEBA                        BRA       $00002434(pc)
 46FC 2000                        MOVE      #$2000,SR
 4E75                             RTS
 2F00                             MOVE.L    D0,-(A7)
 2F01                             MOVE.L    D1,-(A7)
 0280 000000FF                    AND.L     #$000000FF,D0
 2200                             MOVE.L    D0,D1
 46FC 2700                        MOVE      #$2700,SR
 397C 8F02 0004                   MOVE.W    #$8F02,$0004(A4)
 6100 F18A                        BSR       $00001724(pc)
 2940 0004                        MOVE.L    D0,$0004(A4)
 D279 00FF0002                    ADD.W     $00FF0002,D1
 3881                             MOVE.W    D1,(A4)
 46FC 2000                        MOVE      #$2000,SR
 221F                             MOVE.L    (A7)+,D1
 201F                             MOVE.L    (A7)+,D0
 5239 00FF0000                    ADDQ.B    #$1,$00FF0000
 1039 00FF002A                    MOVE.B    $00FF002A,D0
 B039 00FF0000                    CMP.B     $00FF0000,D0
 6700 0004                        BEQ       $000025C8(pc)
 4E75                             RTS
 2F00                             MOVE.L    D0,-(A7)
 4239 00FF0000                    CLR.B     $00FF0000
 5239 00FF0001                    ADDQ.B    #$1,$00FF0001
 1039 00FF002B                    MOVE.B    $00FF002B,D0
 B039 00FF0001                    CMP.B     $00FF0001,D0
 6700 000A                        BEQ       $000025EE(pc)
 201F                             MOVE.L    (A7)+,D0
 46FC 2000                        MOVE      #$2000,SR
 4E75                             RTS
 2F08                             MOVE.L    A0,-(A7)
 5300                             SUBQ.B    #$1,D0
 13C0 00FF0001                    MOVE.B    D0,$00FF0001
 207C 00C00004                    MOVE.L    #$00C00004,A0
 46FC 2700                        MOVE      #$2700,SR
 30BC 8F01                        MOVE.W    #$8F01,(A0)
 7000                             MOVEQ     #$00,D0
 1039 00FF002B                    MOVE.B    $00FF002B,D0
 E708                             LSL.B     #3,D0
 0640 9300                        ADD.W     #$9300,D0
 3080                             MOVE.W    D0,(A0)
 1039 00FF002B                    MOVE.B    $00FF002B,D0
 E208                             LSR.B     #1,D0
 0640 0100                        ADD.W     #$0100,D0
 3080                             MOVE.W    D0,(A0)
 303C 9580                        MOVE.W    #$9580,D0
 D039 00FF001D                    ADD.B     $00FF001D,D0
 0200 0080                        AND.B     #$80,D0
 3080                             MOVE.W    D0,(A0)
 2039 00FF001C                    MOVE.L    $00FF001C,D0
 4840                             SWAP      D0
 0640 0080                        ADD.W     #$0080,D0
 E548                             LSL.W     #2,D0
 E488                             LSR.L     #2,D0
 E048                             LSR.W     #8,D0
 0640 9600                        ADD.W     #$9600,D0
 3080                             MOVE.W    D0,(A0)
 30BC 97C0                        MOVE.W    #$97C0,(A0)
 203C C00000C0                    MOVE.L    #$C00000C0,D0
 D0B9 00FF001C                    ADD.L     $00FF001C,D0
 0280 FF80FFFF                    AND.L     #$FF80FFFF,D0
 2080                             MOVE.L    D0,(A0)
 6100 F2C2                        BSR       $00001928(pc)
 205F                             MOVE.L    (A7)+,A0
 201F                             MOVE.L    (A7)+,D0
 46FC 2000                        MOVE      #$2000,SR
 4E75                             RTS
 1039 00FF0000                    MOVE.B    $00FF0000,D0
 0200 00F8                        AND.B     #$F8,D0
 5000                             ADDQ.B    #$0,D0
 B039 00FF002A                    CMP.B     $00FF002A,D0
 6400 FF42                        BCC       $000025C8(pc)
 13C0 00FF0000                    MOVE.B    D0,$00FF0000
 4E75                             RTS
 46FC 2700                        MOVE      #$2700,SR
 397C 8F02 0004                   MOVE.W    #$8F02,$0004(A4)
 E389                             LSL.L     #1,D1
 4841                             SWAP      D1
 0681 C0000000                    ADD.L     #$C0000000,D1
 2941 0004                        MOVE.L    D1,$0004(A4)
 4281                             CLR.L     D1
 0480 00000001                    SUB.L     #$00000001,D0
 3218                             MOVE.W    (A0)+,D1
 E349                             LSL.W     #1,D1
 3881                             MOVE.W    D1,(A4)
 51C8 FFF8                        DBRA      D0,$000026B0
 46FC 2000                        MOVE      #$2000,SR
 4E75                             RTS
 46FC 2700                        MOVE      #$2700,SR
 397C 8F02 0004                   MOVE.W    #$8F02,$0004(A4)
 E589                             LSL.L     #2,D1
 E449                             LSR.W     #2,D1
 4841                             SWAP      D1
 0681 40000000                    ADD.L     #$40000000,D1
 2941 0004                        MOVE.L    D1,$0004(A4)
 5380                             SUBQ.L    #$1,D0
 4CD8 06FC                        MOVEM.L   (A0)+,D2-D7/A1-A2
 2882                             MOVE.L    D2,(A4)
 2883                             MOVE.L    D3,(A4)
 2884                             MOVE.L    D4,(A4)
 2885                             MOVE.L    D5,(A4)
 2886                             MOVE.L    D6,(A4)
 2887                             MOVE.L    D7,(A4)
 2889                             MOVE.L    A1,(A4)
 288A                             MOVE.L    A2,(A4)
 51C8 FFEA                        DBRA      D0,$000026DC
 46FC 2000                        MOVE      #$2000,SR
 4E75                             RTS
 46FC 2700                        MOVE      #$2700,SR
 397C 8F02 0004                   MOVE.W    #$8F02,$0004(A4)
 E589                             LSL.L     #2,D1
 E449                             LSR.W     #2,D1
 4841                             SWAP      D1
 0681 40000000                    ADD.L     #$40000000,D1
 2941 0004                        MOVE.L    D1,$0004(A4)
 E788                             LSL.L     #3,D0
 0480 00000001                    SUB.L     #$00000001,D0
 4281                             CLR.L     D1
 4282                             CLR.L     D2
 263C 00000001                    MOVE.L    #$00000001,D3
 283C 00000003                    MOVE.L    #$00000003,D4
 1218                             MOVE.B    (A0)+,D1
 E94A                             LSL.W     #4,D2
 1201                             MOVE.B    D1,D1
 6B00 002C                        BMI       $00002760(pc)
 0642 0000                        ADD.W     #$0000,D2
 E309                             LSL.B     #1,D1
 51CC FFF0                        DBRA      D4,$0000272E
 3882                             MOVE.W    D2,(A4)
 4282                             CLR.L     D2
 283C 00000003                    MOVE.L    #$00000003,D4
 51CB FFE2                        DBRA      D3,$0000272E
 263C 00000001                    MOVE.L    #$00000001,D3
 1218                             MOVE.B    (A0)+,D1
 51C8 FFD6                        DBRA      D0,$0000272E
 46FC 2000                        MOVE      #$2000,SR
 4E75                             RTS
 0642 0001                        ADD.W     #$0001,D2
 60D4                             BRA       $0000273A
 46FC 2700                        MOVE      #$2700,SR
 3F39 00FF0000                    MOVE.W    $00FF0000,-(A7)
 33FC 001A 00FF0000               MOVE.W    #$001A,$00FF0000
 207C 000027B8                    MOVE.L    #$000027B8,A0
 6100 F12E                        BSR       $000018AE(pc)
 303C 8100                        MOVE.W    #$8100,D0
 D039 00FF0017                    ADD.B     $00FF0017,D0
 0000 0040                        OR.B      #$40,D0
 3940 0004                        MOVE.W    D0,$0004(A4)
 206F 0004                        MOVE.L    $0004(A7),A0
 2018                             MOVE.L    (A0)+,D0
 2F48 0004                        MOVE.L    A0,$0004(A7)
 6100 F86A                        BSR       $0000200A(pc)
 33FC 171A 00FF0000               MOVE.W    #$171A,$00FF0000
 207C 000027CA                    MOVE.L    #$000027CA,A0
 6100 F0FC                        BSR       $000018AE(pc)
 6000 05DA                        BRA       $00002D90(pc)
 4252                             CLR.W     (A2)
 4541                             Invalid
 4B50                             Invalid
 4F49                             Invalid
 4E54 2D4C                        LINK      A4,#$2D4C
 696E                             BVS       $00002834
 653A                             BCS       $00002802
 2000                             MOVE.L    D0,D0
 2853                             MOVE.L    (A3),A4
 5441                             ADDQ.W    #$2,D1
 5254                             ADDQ.W    #$1,(A4)
 3A72 6574                        MOVE.W    $65(A2,D2.L),A5
 7572                             MOVEQ     #$72,D2
 6E29                             BGT       $00002801
 0000 207C                        OR.B      #$7C,D0
 0000 28E8                        OR.B      #$E8,D0
 6000 0554                        BRA       $00002D36(pc)
 207C 0000290E                    MOVE.L    #$0000290E,A0
 6000 054A                        BRA       $00002D36(pc)
 207C 0000295A                    MOVE.L    #$0000295A,A0
 6000 0540                        BRA       $00002D36(pc)
 207C 00002934                    MOVE.L    #$00002934,A0
 6000 0536                        BRA       $00002D36(pc)
 207C 00002980                    MOVE.L    #$00002980,A0
 6000 052C                        BRA       $00002D36(pc)
 207C 000029A6                    MOVE.L    #$000029A6,A0
 6000 0522                        BRA       $00002D36(pc)
 207C 000029CC                    MOVE.L    #$000029CC,A0
 6000 0518                        BRA       $00002D36(pc)
 207C 000029F2                    MOVE.L    #$000029F2,A0
 6000 050E                        BRA       $00002D36(pc)
 207C 00002A18                    MOVE.L    #$00002A18,A0
 6000 0504                        BRA       $00002D36(pc)
 207C 00002A3E                    MOVE.L    #$00002A3E,A0
 6000 04FA                        BRA       $00002D36(pc)
 207C 00002A64                    MOVE.L    #$00002A64,A0
 6000 04F0                        BRA       $00002D36(pc)
 207C 00002A8A                    MOVE.L    #$00002A8A,A0
 6000 0518                        BRA       $00002D68(pc)
 207C 00002AB0                    MOVE.L    #$00002AB0,A0
 6000 050E                        BRA       $00002D68(pc)
 207C 00002AD6                    MOVE.L    #$00002AD6,A0
 6000 0504                        BRA       $00002D68(pc)
 207C 00002AFC                    MOVE.L    #$00002AFC,A0
 6000 04FA                        BRA       $00002D68(pc)
 207C 00002B22                    MOVE.L    #$00002B22,A0
 6000 04F0                        BRA       $00002D68(pc)
 207C 00002B48                    MOVE.L    #$00002B48,A0
 6000 04E6                        BRA       $00002D68(pc)
 207C 00002B6E                    MOVE.L    #$00002B6E,A0
 6000 04DC                        BRA       $00002D68(pc)
 207C 00002B94                    MOVE.L    #$00002B94,A0
 6000 04D2                        BRA       $00002D68(pc)
 207C 00002BBA                    MOVE.L    #$00002BBA,A0
 6000 04C8                        BRA       $00002D68(pc)
 207C 00002BE0                    MOVE.L    #$00002BE0,A0
 6000 04BE                        BRA       $00002D68(pc)
 207C 00002C06                    MOVE.L    #$00002C06,A0
 6000 04B4                        BRA       $00002D68(pc)
 207C 00002C2C                    MOVE.L    #$00002C2C,A0
 6000 04AA                        BRA       $00002D68(pc)
 207C 00002C52                    MOVE.L    #$00002C52,A0
 6000 04A0                        BRA       $00002D68(pc)
 207C 00002C78                    MOVE.L    #$00002C78,A0
 6000 0496                        BRA       $00002D68(pc)
 207C 00002C9E                    MOVE.L    #$00002C9E,A0
 6000 048C                        BRA       $00002D68(pc)
 207C 00002D10                    MOVE.L    #$00002D10,A0
 6000 0450                        BRA       $00002D36(pc)
 3638 4B20                        MOVE.W    $4B20,D3
 4275 7320                        CLR.W     $73(A5,D0.W)
 4572                             Invalid
 726F                             MOVEQ     #$6F,D1
 7220                             MOVEQ     #$20,D1
 2020                             MOVE.L    -(A0),D0
 2020                             MOVE.L    -(A0),D0
 2020                             MOVE.L    -(A0),D0
 2020                             MOVE.L    -(A0),D0
 2020                             MOVE.L    -(A0),D0
 2853                             MOVE.L    (A3),A4
 5441                             ADDQ.W    #$2,D1
 5254                             ADDQ.W    #$1,(A4)
 3A72 6573                        MOVE.W    $65(A2,A1.L),A5
 6574                             BCS       $00002980
 2900                             MOVE.L    D0,-(A4)
 3638 4B20                        MOVE.W    $4B20,D3
 4164                             Invalid
 6472                             BCC       $00002988
 6573                             BCS       $0000298B
 7320                             MOVEQ     #$20,D1
 4572                             Invalid
 726F                             MOVEQ     #$6F,D1
 7220                             MOVEQ     #$20,D1
 2020                             MOVE.L    -(A0),D0
 2020                             MOVE.L    -(A0),D0
 2020                             MOVE.L    -(A0),D0
 2853                             MOVE.L    (A3),A4
 5441                             ADDQ.W    #$2,D1
 5254                             ADDQ.W    #$1,(A4)
 3A72 6573                        MOVE.W    $65(A2,A1.L),A5
 6574                             BCS       $000029A6
 2900                             MOVE.L    D0,-(A4)
 3638 4B20                        MOVE.W    $4B20,D3
 4164                             Invalid
 6472                             BCC       $000029AE
 6573                             BCS       $000029B1
 732F                             MOVEQ     #$2F,D1
 496E                             Invalid
 7374                             MOVEQ     #$74,D1
 7220                             MOVEQ     #$20,D1
 4572                             Invalid
 726F                             MOVEQ     #$6F,D1
 7220                             MOVEQ     #$20,D1
 2853                             MOVE.L    (A3),A4
 5441                             ADDQ.W    #$2,D1
 5254                             ADDQ.W    #$1,(A4)
 3A72 6573                        MOVE.W    $65(A2,A1.L),A5
 6574                             BCS       $000029CC
 2900                             MOVE.L    D0,-(A4)
 3638 4B20                        MOVE.W    $4B20,D3
 496C                             Invalid
 6C65                             BGE       $000029C7
 6761                             BEQ       $000029C5
 6C20                             BGE       $00002986
 496E                             Invalid
 7374                             MOVEQ     #$74,D1
 7275                             MOVEQ     #$75,D1
 6374                             BLS       $000029E2
 696F                             BVS       $000029DF
 6E20                             BGT       $00002992
 2853                             MOVE.L    (A3),A4
 5441                             ADDQ.W    #$2,D1
 5254                             ADDQ.W    #$1,(A4)
 3A72 6573                        MOVE.W    $65(A2,A1.L),A5
 6574                             BCS       $000029F2
 2900                             MOVE.L    D0,-(A4)
 3638 4B20                        MOVE.W    $4B20,D3
 4469 7669                        NEG.W     $7669(A1)
 6465                             BCC       $000029EF
 2062                             MOVE.L    -(A2),A0
 7920                             MOVEQ     #$20,D4
 5A65                             ADDQ.W    #$5,-(A5)
 726F                             MOVEQ     #$6F,D1
 2020                             MOVE.L    -(A0),D0
 2020                             MOVE.L    -(A0),D0
 2020                             MOVE.L    -(A0),D0
 2853                             MOVE.L    (A3),A4
 5441                             ADDQ.W    #$2,D1
 5254                             ADDQ.W    #$1,(A4)
 3A72 6573                        MOVE.W    $65(A2,A1.L),A5
 6574                             BCS       $00002A18
 2900                             MOVE.L    D0,-(A4)
 3638 4B20                        MOVE.W    $4B20,D3
 4348                             Invalid
 4B20                             Invalid
 496E                             Invalid
 7374                             MOVEQ     #$74,D1
 7275                             MOVEQ     #$75,D1
 6374                             BLS       $00002A2A
 696F                             BVS       $00002A27
 6E20                             BGT       $000029DA
 2020                             MOVE.L    -(A0),D0
 2020                             MOVE.L    -(A0),D0
 2853                             MOVE.L    (A3),A4
 5441                             ADDQ.W    #$2,D1
 5254                             ADDQ.W    #$1,(A4)
 3A72 6573                        MOVE.W    $65(A2,A1.L),A5
 6574                             BCS       $00002A3E
 2900                             MOVE.L    D0,-(A4)
 3638 4B20                        MOVE.W    $4B20,D3
 5452                             ADDQ.W    #$2,(A2)
 4150                             Invalid
 5620                             ADDQ.B    #$3,-(A0)
 496E                             Invalid
 7374                             MOVEQ     #$74,D1
 7275                             MOVEQ     #$75,D1
 6374                             BLS       $00002A52
 696F                             BVS       $00002A4F
 6E20                             BGT       $00002A02
 2020                             MOVE.L    -(A0),D0
 2853                             MOVE.L    (A3),A4
 5441                             ADDQ.W    #$2,D1
 5254                             ADDQ.W    #$1,(A4)
 3A72 6573                        MOVE.W    $65(A2,A1.L),A5
 6574                             BCS       $00002A64
 2900                             MOVE.L    D0,-(A4)
 3638 4B20                        MOVE.W    $4B20,D3
 5072 6976                        ADDQ.W    #$0,$69(A2,D3.L)
 696C                             BVS       $00002A68
 6567                             BCS       $00002A65
 6520                             BCS       $00002A20
 5669 6F6C                        ADDQ.W    #$3,$6F6C(A1)
 6174                             BSR       $00002A7A
 696F                             BVS       $00002A77
 6E20                             BGT       $00002A2A
 2853                             MOVE.L    (A3),A4
 5441                             ADDQ.W    #$2,D1
 5254                             ADDQ.W    #$1,(A4)
 3A72 6573                        MOVE.W    $65(A2,A1.L),A5
 6574                             BCS       $00002A8A
 2900                             MOVE.L    D0,-(A4)
 3638 4B20                        MOVE.W    $4B20,D3
 5452                             ADDQ.W    #$2,(A2)
 4143                             Invalid
 4520                             Invalid
 2020                             MOVE.L    -(A0),D0
 2020                             MOVE.L    -(A0),D0
 2020                             MOVE.L    -(A0),D0
 2020                             MOVE.L    -(A0),D0
 2020                             MOVE.L    -(A0),D0
 2020                             MOVE.L    -(A0),D0
 2020                             MOVE.L    -(A0),D0
 2853                             MOVE.L    (A3),A4
 5441                             ADDQ.W    #$2,D1
 5254                             ADDQ.W    #$1,(A4)
 3A72 6573                        MOVE.W    $65(A2,A1.L),A5
 6574                             BCS       $00002AB0
 2900                             MOVE.L    D0,-(A4)
 3638 4B20                        MOVE.W    $4B20,D3
 4C69                             Invalid
 6E65                             BGT       $00002AAB
 2031 3031                        MOVE.L    $30(A1,A0.L),D0
 3020                             MOVE.W    -(A0),D0
 456D                             Invalid
 756C                             MOVEQ     #$6C,D2
 6174                             BSR       $00002AC6
 6F72                             BLE       $00002AC6
 2020                             MOVE.L    -(A0),D0
 2853                             MOVE.L    (A3),A4
 5441                             ADDQ.W    #$2,D1
 5254                             ADDQ.W    #$1,(A4)
 3A72 6573                        MOVE.W    $65(A2,A1.L),A5
 6574                             BCS       $00002AD6
 2900                             MOVE.L    D0,-(A4)
 3638 4B20                        MOVE.W    $4B20,D3
 4C69                             Invalid
 6E65                             BGT       $00002AD1
 2031 3131                        MOVE.L    $31(A1,A0.L),D0
 3120                             MOVE.W    -(A0),-(A0)
 456D                             Invalid
 756C                             MOVEQ     #$6C,D2
 6174                             BSR       $00002AEC
 6F72                             BLE       $00002AEC
 2020                             MOVE.L    -(A0),D0
 2853                             MOVE.L    (A3),A4
 5441                             ADDQ.W    #$2,D1
 5254                             ADDQ.W    #$1,(A4)
 3A72 6573                        MOVE.W    $65(A2,A1.L),A5
 6574                             BCS       $00002AFC
 2900                             MOVE.L    D0,-(A4)
 3638 4B20                        MOVE.W    $4B20,D3
 5452                             ADDQ.W    #$2,(A2)
 4150                             Invalid
 2023                             MOVE.L    -(A3),D0
 3120                             MOVE.W    -(A0),-(A0)
 2020                             MOVE.L    -(A0),D0
 2853                             MOVE.L    (A3),A4
 5441                             ADDQ.W    #$2,D1
 5254                             ADDQ.W    #$1,(A4)
 3A72 6574                        MOVE.W    $65(A2,D2.L),A5
 7572                             MOVEQ     #$72,D2
 6E2C                             BGT       $00002AD2
 2043                             MOVE.L    D3,A0
 3A72 6573                        MOVE.W    $65(A2,A1.L),A5
 6574                             BCS       $00002B22
 2900                             MOVE.L    D0,-(A4)
 3638 4B20                        MOVE.W    $4B20,D3
 5452                             ADDQ.W    #$2,(A2)
 4150                             Invalid
 2023                             MOVE.L    -(A3),D0
 3220                             MOVE.W    -(A0),D1
 2020                             MOVE.L    -(A0),D0
 2853                             MOVE.L    (A3),A4
 5441                             ADDQ.W    #$2,D1
 5254                             ADDQ.W    #$1,(A4)
 3A72 6574                        MOVE.W    $65(A2,D2.L),A5
 7572                             MOVEQ     #$72,D2
 6E2C                             BGT       $00002AF8
 2043                             MOVE.L    D3,A0
 3A72 6573                        MOVE.W    $65(A2,A1.L),A5
 6574                             BCS       $00002B48
 2900                             MOVE.L    D0,-(A4)
 3638 4B20                        MOVE.W    $4B20,D3
 5452                             ADDQ.W    #$2,(A2)
 4150                             Invalid
 2023                             MOVE.L    -(A3),D0
 3320                             MOVE.W    -(A0),-(A1)
 2020                             MOVE.L    -(A0),D0
 2853                             MOVE.L    (A3),A4
 5441                             ADDQ.W    #$2,D1
 5254                             ADDQ.W    #$1,(A4)
 3A72 6574                        MOVE.W    $65(A2,D2.L),A5
 7572                             MOVEQ     #$72,D2
 6E2C                             BGT       $00002B1E
 2043                             MOVE.L    D3,A0
 3A72 6573                        MOVE.W    $65(A2,A1.L),A5
 6574                             BCS       $00002B6E
 2900                             MOVE.L    D0,-(A4)
 3638 4B20                        MOVE.W    $4B20,D3
 5452                             ADDQ.W    #$2,(A2)
 4150                             Invalid
 2023                             MOVE.L    -(A3),D0
 3420                             MOVE.W    -(A0),D2
 2020                             MOVE.L    -(A0),D0
 2853                             MOVE.L    (A3),A4
 5441                             ADDQ.W    #$2,D1
 5254                             ADDQ.W    #$1,(A4)
 3A72 6574                        MOVE.W    $65(A2,D2.L),A5
 7572                             MOVEQ     #$72,D2
 6E2C                             BGT       $00002B44
 2043                             MOVE.L    D3,A0
 3A72 6573                        MOVE.W    $65(A2,A1.L),A5
 6574                             BCS       $00002B94
 2900                             MOVE.L    D0,-(A4)
 3638 4B20                        MOVE.W    $4B20,D3
 5452                             ADDQ.W    #$2,(A2)
 4150                             Invalid
 2023                             MOVE.L    -(A3),D0
 3520                             MOVE.W    -(A0),-(A2)
 2020                             MOVE.L    -(A0),D0
 2853                             MOVE.L    (A3),A4
 5441                             ADDQ.W    #$2,D1
 5254                             ADDQ.W    #$1,(A4)
 3A72 6574                        MOVE.W    $65(A2,D2.L),A5
 7572                             MOVEQ     #$72,D2
 6E2C                             BGT       $00002B6A
 2043                             MOVE.L    D3,A0
 3A72 6573                        MOVE.W    $65(A2,A1.L),A5
 6574                             BCS       $00002BBA
 2900                             MOVE.L    D0,-(A4)
 3638 4B20                        MOVE.W    $4B20,D3
 5452                             ADDQ.W    #$2,(A2)
 4150                             Invalid
 2023                             MOVE.L    -(A3),D0
 3620                             MOVE.W    -(A0),D3
 2020                             MOVE.L    -(A0),D0
 2853                             MOVE.L    (A3),A4
 5441                             ADDQ.W    #$2,D1
 5254                             ADDQ.W    #$1,(A4)
 3A72 6574                        MOVE.W    $65(A2,D2.L),A5
 7572                             MOVEQ     #$72,D2
 6E2C                             BGT       $00002B90
 2043                             MOVE.L    D3,A0
 3A72 6573                        MOVE.W    $65(A2,A1.L),A5
 6574                             BCS       $00002BE0
 2900                             MOVE.L    D0,-(A4)
 3638 4B20                        MOVE.W    $4B20,D3
 5452                             ADDQ.W    #$2,(A2)
 4150                             Invalid
 2023                             MOVE.L    -(A3),D0
 3720                             MOVE.W    -(A0),-(A3)
 2020                             MOVE.L    -(A0),D0
 2853                             MOVE.L    (A3),A4
 5441                             ADDQ.W    #$2,D1
 5254                             ADDQ.W    #$1,(A4)
 3A72 6574                        MOVE.W    $65(A2,D2.L),A5
 7572                             MOVEQ     #$72,D2
 6E2C                             BGT       $00002BB6
 2043                             MOVE.L    D3,A0
 3A72 6573                        MOVE.W    $65(A2,A1.L),A5
 6574                             BCS       $00002C06
 2900                             MOVE.L    D0,-(A4)
 3638 4B20                        MOVE.W    $4B20,D3
 5452                             ADDQ.W    #$2,(A2)
 4150                             Invalid
 2023                             MOVE.L    -(A3),D0
 3820                             MOVE.W    -(A0),D4
 2020                             MOVE.L    -(A0),D0
 2853                             MOVE.L    (A3),A4
 5441                             ADDQ.W    #$2,D1
 5254                             ADDQ.W    #$1,(A4)
 3A72 6574                        MOVE.W    $65(A2,D2.L),A5
 7572                             MOVEQ     #$72,D2
 6E2C                             BGT       $00002BDC
 2043                             MOVE.L    D3,A0
 3A72 6573                        MOVE.W    $65(A2,A1.L),A5
 6574                             BCS       $00002C2C
 2900                             MOVE.L    D0,-(A4)
 3638 4B20                        MOVE.W    $4B20,D3
 5452                             ADDQ.W    #$2,(A2)
 4150                             Invalid
 2023                             MOVE.L    -(A3),D0
 3920                             MOVE.W    -(A0),-(A4)
 2020                             MOVE.L    -(A0),D0
 2853                             MOVE.L    (A3),A4
 5441                             ADDQ.W    #$2,D1
 5254                             ADDQ.W    #$1,(A4)
 3A72 6574                        MOVE.W    $65(A2,D2.L),A5
 7572                             MOVEQ     #$72,D2
 6E2C                             BGT       $00002C02
 2043                             MOVE.L    D3,A0
 3A72 6573                        MOVE.W    $65(A2,A1.L),A5
 6574                             BCS       $00002C52
 2900                             MOVE.L    D0,-(A4)
 3638 4B20                        MOVE.W    $4B20,D3
 5452                             ADDQ.W    #$2,(A2)
 4150                             Invalid
 2023                             MOVE.L    -(A3),D0
 3130 2020                        MOVE.W    $20(A0,D0.W),-(A0)
 2853                             MOVE.L    (A3),A4
 5441                             ADDQ.W    #$2,D1
 5254                             ADDQ.W    #$1,(A4)
 3A72 6574                        MOVE.W    $65(A2,D2.L),A5
 7572                             MOVEQ     #$72,D2
 6E2C                             BGT       $00002C28
 2043                             MOVE.L    D3,A0
 3A72 6573                        MOVE.W    $65(A2,A1.L),A5
 6574                             BCS       $00002C78
 2900                             MOVE.L    D0,-(A4)
 3638 4B20                        MOVE.W    $4B20,D3
 5452                             ADDQ.W    #$2,(A2)
 4150                             Invalid
 2023                             MOVE.L    -(A3),D0
 3131 2020                        MOVE.W    $20(A1,D0.W),-(A0)
 2853                             MOVE.L    (A3),A4
 5441                             ADDQ.W    #$2,D1
 5254                             ADDQ.W    #$1,(A4)
 3A72 6574                        MOVE.W    $65(A2,D2.L),A5
 7572                             MOVEQ     #$72,D2
 6E2C                             BGT       $00002C4E
 2043                             MOVE.L    D3,A0
 3A72 6573                        MOVE.W    $65(A2,A1.L),A5
 6574                             BCS       $00002C9E
 2900                             MOVE.L    D0,-(A4)
 3638 4B20                        MOVE.W    $4B20,D3
 5452                             ADDQ.W    #$2,(A2)
 4150                             Invalid
 2023                             MOVE.L    -(A3),D0
 3132 2020                        MOVE.W    $20(A2,D0.W),-(A0)
 2853                             MOVE.L    (A3),A4
 5441                             ADDQ.W    #$2,D1
 5254                             ADDQ.W    #$1,(A4)
 3A72 6574                        MOVE.W    $65(A2,D2.L),A5
 7572                             MOVEQ     #$72,D2
 6E2C                             BGT       $00002C74
 2043                             MOVE.L    D3,A0
 3A72 6573                        MOVE.W    $65(A2,A1.L),A5
 6574                             BCS       $00002CC4
 2900                             MOVE.L    D0,-(A4)
 3638 4B20                        MOVE.W    $4B20,D3
 5452                             ADDQ.W    #$2,(A2)
 4150                             Invalid
 2023                             MOVE.L    -(A3),D0
 3133 2020                        MOVE.W    $20(A3,D0.W),-(A0)
 2853                             MOVE.L    (A3),A4
 5441                             ADDQ.W    #$2,D1
 5254                             ADDQ.W    #$1,(A4)
 3A72 6574                        MOVE.W    $65(A2,D2.L),A5
 7572                             MOVEQ     #$72,D2
 6E2C                             BGT       $00002C9A
 2043                             MOVE.L    D3,A0
 3A72 6573                        MOVE.W    $65(A2,A1.L),A5
 6574                             BCS       $00002CEA
 2900                             MOVE.L    D0,-(A4)
 3638 4B20                        MOVE.W    $4B20,D3
 5452                             ADDQ.W    #$2,(A2)
 4150                             Invalid
 2023                             MOVE.L    -(A3),D0
 3134 2020                        MOVE.W    $20(A4,D0.W),-(A0)
 2853                             MOVE.L    (A3),A4
 5441                             ADDQ.W    #$2,D1
 5254                             ADDQ.W    #$1,(A4)
 3A72 6574                        MOVE.W    $65(A2,D2.L),A5
 7572                             MOVEQ     #$72,D2
 6E2C                             BGT       $00002CC0
 2043                             MOVE.L    D3,A0
 3A72 6573                        MOVE.W    $65(A2,A1.L),A5
 6574                             BCS       $00002D10
 2900                             MOVE.L    D0,-(A4)
 3638 4B20                        MOVE.W    $4B20,D3
 5452                             ADDQ.W    #$2,(A2)
 4150                             Invalid
 2023                             MOVE.L    -(A3),D0
 3135 2020                        MOVE.W    $20(A5,D0.W),-(A0)
 2853                             MOVE.L    (A3),A4
 5441                             ADDQ.W    #$2,D1
 5254                             ADDQ.W    #$1,(A4)
 3A72 6574                        MOVE.W    $65(A2,D2.L),A5
 7572                             MOVEQ     #$72,D2
 6E2C                             BGT       $00002CE6
 2043                             MOVE.L    D3,A0
 3A72 6573                        MOVE.W    $65(A2,A1.L),A5
 6574                             BCS       $00002D36
 2900                             MOVE.L    D0,-(A4)
 5350                             SUBQ.W    #$1,(A0)
 5249                             ADDQ.W    #$1,A1
 5445                             ADDQ.W    #$2,D5
 204C                             MOVE.L    A4,A0
 494D                             Invalid
 4954                             Invalid
 2052                             MOVE.L    (A2),A0
 4541                             Invalid
 4348                             Invalid
 4544                             Invalid
 2020                             MOVE.L    -(A0),D0
 2020                             MOVE.L    -(A0),D0
 2853                             MOVE.L    (A3),A4
 5441                             ADDQ.W    #$2,D1
 5254                             ADDQ.W    #$1,(A4)
 3A72 6573                        MOVE.W    $65(A2,A1.L),A5
 6574                             BCS       $00002D5C
 2900                             MOVE.L    D0,-(A4)
 4E4F                             Invalid
 5420                             ADDQ.B    #$2,-(A0)
 4120                             Invalid
 4241                             CLR.W     D1
 5349                             SUBQ.W    #$1,A1
 4547                             Invalid
 4158                             Invalid
 4F52                             Invalid
 5A20                             ADDQ.B    #$5,-(A0)
 4344                             Invalid
 2020                             MOVE.L    -(A0),D0
 2020                             MOVE.L    -(A0),D0
 2853                             MOVE.L    (A3),A4
 5441                             ADDQ.W    #$2,D1
 5254                             ADDQ.W    #$1,(A4)
 3A72 6573                        MOVE.W    $65(A2,A1.L),A5
 6574                             BCS       $00002D82
 2900                             MOVE.L    D0,-(A4)
 5354                             SUBQ.W    #$1,(A4)
 4143                             Invalid
 4B20                             Invalid
 554E                             SUBQ.W    #$2,A6
 4445                             NEG.W     D5
 5252                             ADDQ.W    #$1,(A2)
 554E                             SUBQ.W    #$2,A6
 2020                             MOVE.L    -(A0),D0
 2020                             MOVE.L    -(A0),D0
 2020                             MOVE.L    -(A0),D0
 2020                             MOVE.L    -(A0),D0
 2020                             MOVE.L    -(A0),D0
 2853                             MOVE.L    (A3),A4
 5441                             ADDQ.W    #$2,D1
 5254                             ADDQ.W    #$1,(A4)
 3A72 6573                        MOVE.W    $65(A2,A1.L),A5
 6574                             BCS       $00002DA8
 2900                             MOVE.L    D0,-(A4)
 33FC 001A 00FF0000               MOVE.W    #$001A,$00FF0000
 6100 EB6E                        BSR       $000018AE(pc)
 303C 8100                        MOVE.W    #$8100,D0
 D039 00FF0017                    ADD.B     $00FF0017,D0
 0000 0040                        OR.B      #$40,D0
 3940 0004                        MOVE.W    D0,$0004(A4)
 4280                             CLR.L     D0
 6100 0176                        BSR       $00002ECE(pc)
 4280                             CLR.L     D0
 6100 E38C                        BSR       $000010EA(pc)
 4A02                             TST.B     D2
 6AF6                             BPL       $00002D5A
 6000 D4BA                        BRA       $00000220(pc)
 46FC 2700                        MOVE      #$2700,SR
 3F39 00FF0000                    MOVE.W    $00FF0000,-(A7)
 33FC 001A 00FF0000               MOVE.W    #$001A,$00FF0000
 6100 EB32                        BSR       $000018AE(pc)
 303C 8100                        MOVE.W    #$8100,D0
 D039 00FF0017                    ADD.B     $00FF0017,D0
 0000 0040                        OR.B      #$40,D0
 3940 0004                        MOVE.W    D0,$0004(A4)
 4280                             CLR.L     D0
 6100 013A                        BSR       $00002ECE(pc)
 4280                             CLR.L     D0
 6100 E350                        BSR       $000010EA(pc)
 0802 0007                        BTST      #$07,D2
 6600 000C                        BNE       $00002DAE(pc)
 0802 0005                        BTST      #$05,D2
 6600 D476                        BNE       $00000220(pc)
 60E8                             BRA       $00002D96
 33FC 001A 00FF0000               MOVE.W    #$001A,$00FF0000
 297C 00008F02 0004               MOVE.L    #$00008F02,$0004(A4)
 6100 E964                        BSR       $00001724(pc)
 2940 0004                        MOVE.L    D0,$0004(A4)
 323C 0024                        MOVE.W    #$0024,D1
 38B9 00FF0002                    MOVE.W    $00FF0002,(A4)
 51C9 FFF8                        DBRA      D1,$00002DCA
 33DF 00FF0000                    MOVE.W    (A7)+,$00FF0000
 46FC 2000                        MOVE      #$2000,SR
 4E73                             RTE
 2F01                             MOVE.L    D1,-(A7)
 2F02                             MOVE.L    D2,-(A7)
 2F03                             MOVE.L    D3,-(A7)
 2F04                             MOVE.L    D4,-(A7)
 222F 0014                        MOVE.L    $0014(A7),D1
 2401                             MOVE.L    D1,D2
 C2C0                             MULU      D0,D1
 2802                             MOVE.L    D2,D4
 4844                             SWAP      D4
 2600                             MOVE.L    D0,D3
 C6C4                             MULU      D4,D3
 4840                             SWAP      D0
 C4C0                             MULU      D0,D2
 4843                             SWAP      D3
 C0C4                             MULU      D4,D0
 4842                             SWAP      D2
 2803                             MOVE.L    D3,D4
 4244                             CLR.W     D4
 B983                             Invalid
 D284                             ADD.L     D4,D1
 D183                             Invalid
 3602                             MOVE.W    D2,D3
 B782                             Invalid
 D282                             ADD.L     D2,D1
 D183                             Invalid
 281F                             MOVE.L    (A7)+,D4
 261F                             MOVE.L    (A7)+,D3
 241F                             MOVE.L    (A7)+,D2
 2001                             MOVE.L    D1,D0
 221F                             MOVE.L    (A7)+,D1
 4E75                             RTS
 48E7 7C00                        MOVEM.L   D1-D5,-(A7)
 242F 0018                        MOVE.L    $0018(A7),D2
 4281                             CLR.L     D1
 B282                             CMP.L     D2,D1
 6400 F9D4                        BCC       $00002802(pc)
 2602                             MOVE.L    D2,D3
 E28B                             LSR.L     #1,D3
 9682                             SUB.L     D2,D3
 9148                             Invalid
 91C3                             SUB.L     D3,A0
 2A3C 0000001F                    MOVE.L    #$0000001F,D5
 2802                             MOVE.L    D2,D4
 EBAC                             LSL.L     D5,D4
 D084                             ADD.L     D4,D0
 D383                             Invalid
 54C3                             Invalid
 D180                             Invalid
 D381                             Invalid
 4883                             EXT.W     D3
 48C3                             EXT.L     D3
 C682                             AND.L     D2,D3
 9688                             SUB.L     A0,D3
 0485 00000001                    SUB.L     #$00000001,D5
 6AE6                             BPL       $00002E44
 4A83                             TST.L     D3
 6B00 0004                        BMI       $00002E66(pc)
 D282                             ADD.L     D2,D1
 4CDF 003E                        MOVEM.L   (A7)+,D1-D5
 4E75                             RTS
 203C FFFFFFFF                    MOVE.L    #$FFFFFFFF,D0
 2200                             MOVE.L    D0,D1
 60F0                             BRA       $00002E66
 48E7 7C00                        MOVEM.L   D1-D5,-(A7)
 242F 0018                        MOVE.L    $0018(A7),D2
 4281                             CLR.L     D1
 B282                             CMP.L     D2,D1
 6400 F97E                        BCC       $00002802(pc)
 2602                             MOVE.L    D2,D3
 E28B                             LSR.L     #1,D3
 9682                             SUB.L     D2,D3
 9148                             Invalid
 91C3                             SUB.L     D3,A0
 2A3C 0000001F                    MOVE.L    #$0000001F,D5
 2802                             MOVE.L    D2,D4
 EBAC                             LSL.L     D5,D4
 D084                             ADD.L     D4,D0
 D383                             Invalid
 54C3                             Invalid
 D180                             Invalid
 D381                             Invalid
 4883                             EXT.W     D3
 48C3                             EXT.L     D3
 C682                             AND.L     D2,D3
 9688                             SUB.L     A0,D3
 0485 00000001                    SUB.L     #$00000001,D5
 6AE6                             BPL       $00002E9A
 4A83                             TST.L     D3
 6B00 0004                        BMI       $00002EBC(pc)
 D282                             ADD.L     D2,D1
 2001                             MOVE.L    D1,D0
 4CDF 003E                        MOVEM.L   (A7)+,D1-D5
 4E75                             RTS
 203C FFFFFFFF                    MOVE.L    #$FFFFFFFF,D0
 2200                             MOVE.L    D0,D1
 60EE                             BRA       $00002EBC
 2F00                             MOVE.L    D0,-(A7)
 6100 E218                        BSR       $000010EA(pc)
 201F                             MOVE.L    (A7)+,D0
 4A42                             TST.W     D2
 66F4                             BNE       $00002ECE
 4E75                             RTS
 46FC 2700                        MOVE      #$2700,SR
 397C 8F02 0004                   MOVE.W    #$8F02,$0004(A4)
 4281                             CLR.L     D1
 3225                             MOVE.W    -(A5),D1
 E349                             LSL.W     #1,D1
 3425                             MOVE.W    -(A5),D2
 E61A                             ROR.B     #3,D2
 D242                             ADD.W     D2,D1
 4841                             SWAP      D1
 0681 C0000000                    ADD.L     #$C0000000,D1
 2941 0004                        MOVE.L    D1,$0004(A4)
 4281                             CLR.L     D1
 5380                             SUBQ.L    #$1,D0
 2065                             MOVE.L    -(A5),A0
 3218                             MOVE.W    (A0)+,D1
 3881                             MOVE.W    D1,(A4)
 51C8 FFFA                        DBRA      D0,$00002F04
 46FC 2000                        MOVE      #$2000,SR
 4E75                             RTS
 46FC 2700                        MOVE      #$2700,SR
 287C 00C00000                    MOVE.L    #$00C00000,A4
 207C 00C00004                    MOVE.L    #$00C00004,A0
 13FC 0004 00FF0016               MOVE.B    #$04,$00FF0016
 13FC 0054 00FF0017               MOVE.B    #$54,$00FF0017
 13FC 00DF 00FF002E               MOVE.B    #$DF,$00FF002E
 0839 0006 00A10001               BTST      #$06,$00A10001
 6700 0012                        BEQ       $00002F56(pc)
 13FC 005C 00FF0017               MOVE.B    #$5C,$00FF0017
 13FC 00EF 00FF002E               MOVE.B    #$EF,$00FF002E
 13FC 0000 00FF0018               MOVE.B    #$00,$00FF0018
 13FC 0081 00FF0019               MOVE.B    #$81,$00FF0019
 303C 8000                        MOVE.W    #$8000,D0
 D039 00FF0016                    ADD.B     $00FF0016,D0
 3080                             MOVE.W    D0,(A0)
 303C 8100                        MOVE.W    #$8100,D0
 D039 00FF0017                    ADD.B     $00FF0017,D0
 3080                             MOVE.W    D0,(A0)
 303C 8B00                        MOVE.W    #$8B00,D0
 D039 00FF0018                    ADD.B     $00FF0018,D0
 3080                             MOVE.W    D0,(A0)
 303C 8C00                        MOVE.W    #$8C00,D0
 D039 00FF0019                    ADD.B     $00FF0019,D0
 3080                             MOVE.W    D0,(A0)
 30BC 8700                        MOVE.W    #$8700,(A0)
 30BC 8800                        MOVE.W    #$8800,(A0)
 30BC 8900                        MOVE.W    #$8900,(A0)
 30BC 8230                        MOVE.W    #$8230,(A0)
 30BC 832C                        MOVE.W    #$832C,(A0)
 30BC 8407                        MOVE.W    #$8407,(A0)
 30BC 9011                        MOVE.W    #$9011,(A0)
 30BC 9100                        MOVE.W    #$9100,(A0)
 30BC 9200                        MOVE.W    #$9200,(A0)
 30BC 8556                        MOVE.W    #$8556,(A0)
 30BC 8600                        MOVE.W    #$8600,(A0)
 30BC 8D2A                        MOVE.W    #$8D2A,(A0)
 30BC 8E00                        MOVE.W    #$8E00,(A0)
 30BC 8A04                        MOVE.W    #$8A04,(A0)
 6100 E906                        BSR       $000018D6(pc)
 42B9 00FF0000                    CLR.L     $00FF0000
 13FC 0000 00A10003               MOVE.B    #$00,$00A10003
 13FC 0000 00A10005               MOVE.B    #$00,$00A10005
 13FC 0000 00A10007               MOVE.B    #$00,$00A10007
 13FC 0040 00A10009               MOVE.B    #$40,$00A10009
 13FC 0040 00A1000B               MOVE.B    #$40,$00A1000B
 13FC 0040 00A1000D               MOVE.B    #$40,$00A1000D
 4239 00A10013                    CLR.B     $00A10013
 4239 00A10019                    CLR.B     $00A10019
 4239 00A1001F                    CLR.B     $00A1001F
 41FA D4FE                        LEA       $0000051A(pc),A0
 203C 00000040                    MOVE.L    #$00000040,D0
 223C 00000000                    MOVE.L    #$00000000,D1
 6100 F664                        BSR       $00002690(pc)
 41FA D56A                        LEA       $0000059A(pc),A0
 203C 00000100                    MOVE.L    #$00000100,D0
 223C 00000000                    MOVE.L    #$00000000,D1
 6100 F6BA                        BSR       $000026FA(pc)
 4279 00FF0000                    CLR.W     $00FF0000
 4279 00FF0004                    CLR.W     $00FF0004
 4279 00FF0002                    CLR.W     $00FF0002
 6100 EA22                        BSR       $00001A78(pc)
 13FC 009F 00FF002F               MOVE.B    #$9F,$00FF002F
 23FC 40000003 00FF001C           MOVE.L    #$40000003,$00FF001C
 23FC 40000003 00FF0020           MOVE.L    #$40000003,$00FF0020
 4279 00FF0024                    CLR.W     $00FF0024
 13FC 0026 00FF002A               MOVE.B    #$26,$00FF002A
 13FC 001A 00FF002B               MOVE.B    #$1A,$00FF002B
 33FC 0082 00FF002C               MOVE.W    #$0082,$00FF002C
 7000                             MOVEQ     #$00,D0
 3039 00FF002C                    MOVE.W    $00FF002C,D0
 4840                             SWAP      D0
 D1B9                             Invalid
 00FF                             Invalid
 001C 2C7C                        OR.B      #$7C,(A4)+
 0000 5862                        OR.B      #$62,D0
 2A7C 00FF0056                    MOVE.L    #$00FF0056,A5
 264D                             MOVE.L    A5,A3
 42B9 00FF0006                    CLR.L     $00FF0006
 42B9 00FF0012                    CLR.L     $00FF0012
 42B9 00FF0026                    CLR.L     $00FF0026
 46FC 2000                        MOVE      #$2000,SR
 207C 00005020                    MOVE.L    #$00005020,A0
 4EB8 1288                        JSR       $1288
 4EB8 181C                        JSR       $181C
 4EB8 25C8                        JSR       $25C8
 207C 00005036                    MOVE.L    #$00005036,A0
 4EB8 1288                        JSR       $1288
 4EB8 181C                        JSR       $181C
 4EB8 25C8                        JSR       $25C8
 207C 00005037                    MOVE.L    #$00005037,A0
 4EB8 1288                        JSR       $1288
 4EB8 181C                        JSR       $181C
 4EB8 25C8                        JSR       $25C8
 203C 000003E8                    MOVE.L    #$000003E8,D0
 33C0 00FF004C                    MOVE.W    D0,$00FF004C
 203C 00000064                    MOVE.L    #$00000064,D0
 33C0 00FF004E                    MOVE.W    D0,$00FF004E
 203C 000003E8                    MOVE.L    #$000003E8,D0
 33C0 00FF0050                    MOVE.W    D0,$00FF0050
 203C 00000000                    MOVE.L    #$00000000,D0
 33C0 00FF0052                    MOVE.W    D0,$00FF0052
 207C 00005038                    MOVE.L    #$00005038,A0
 4EB8 1288                        JSR       $1288
 4EB8 181C                        JSR       $181C
 4280                             CLR.L     D0
 3039 00FF004C                    MOVE.W    $00FF004C,D0
 4EB8 1742                        JSR       $1742
 207C 00005044                    MOVE.L    #$00005044,A0
 4EB8 1288                        JSR       $1288
 4EB8 181C                        JSR       $181C
 4EB8 25C8                        JSR       $25C8
 207C 00005045                    MOVE.L    #$00005045,A0
 4EB8 1288                        JSR       $1288
 4EB8 181C                        JSR       $181C
 4280                             CLR.L     D0
 3039 00FF004E                    MOVE.W    $00FF004E,D0
 4EB8 1742                        JSR       $1742
 207C 00005051                    MOVE.L    #$00005051,A0
 4EB8 1288                        JSR       $1288
 4EB8 181C                        JSR       $181C
 4EB8 25C8                        JSR       $25C8
 207C 00005052                    MOVE.L    #$00005052,A0
 4EB8 1288                        JSR       $1288
 4EB8 181C                        JSR       $181C
 4EB8 25C8                        JSR       $25C8
 207C 00005053                    MOVE.L    #$00005053,A0
 4EB8 1288                        JSR       $1288
 4EB8 181C                        JSR       $181C
 4280                             CLR.L     D0
 3039 00FF0050                    MOVE.W    $00FF0050,D0
 4EB8 1742                        JSR       $1742
 207C 00005060                    MOVE.L    #$00005060,A0
 4EB8 1288                        JSR       $1288
 4EB8 181C                        JSR       $181C
 4EB8 25C8                        JSR       $25C8
 207C 00005061                    MOVE.L    #$00005061,A0
 4EB8 1288                        JSR       $1288
 4EB8 181C                        JSR       $181C
 4EB8 25C8                        JSR       $25C8
 207C 00005062                    MOVE.L    #$00005062,A0
 4EB8 1288                        JSR       $1288
 4EB8 181C                        JSR       $181C
 4EB8 25C8                        JSR       $25C8
 207C 00005063                    MOVE.L    #$00005063,A0
 4EB8 1288                        JSR       $1288
 4EB8 181C                        JSR       $181C
 4EB8 25C8                        JSR       $25C8
 207C 00005076                    MOVE.L    #$00005076,A0
 4EB8 1288                        JSR       $1288
 4EB8 181C                        JSR       $181C
 4EB8 25C8                        JSR       $25C8
 207C 00005077                    MOVE.L    #$00005077,A0
 4EB8 1288                        JSR       $1288
 4EB8 181C                        JSR       $181C
 4EB8 25C8                        JSR       $25C8
 207C 00005091                    MOVE.L    #$00005091,A0
 4EB8 1288                        JSR       $1288
 4EB8 181C                        JSR       $181C
 4EB8 25C8                        JSR       $25C8
 207C 00005092                    MOVE.L    #$00005092,A0
 4EB8 1288                        JSR       $1288
 4EB8 181C                        JSR       $181C
 4EB8 25C8                        JSR       $25C8
 207C 000050A7                    MOVE.L    #$000050A7,A0
 4EB8 1288                        JSR       $1288
 4EB8 181C                        JSR       $181C
 4EB8 25C8                        JSR       $25C8
 207C 000050A8                    MOVE.L    #$000050A8,A0
 4EB8 1288                        JSR       $1288
 4EB8 181C                        JSR       $181C
 4EB8 25C8                        JSR       $25C8
 207C 000050C7                    MOVE.L    #$000050C7,A0
 4EB8 1288                        JSR       $1288
 4EB8 181C                        JSR       $181C
 4EB8 25C8                        JSR       $25C8
 207C 000050C8                    MOVE.L    #$000050C8,A0
 4EB8 1288                        JSR       $1288
 4EB8 181C                        JSR       $181C
 4EB8 25C8                        JSR       $25C8
 48E7 C800                        MOVEM.L   D0-D1/D4,-(A7)
 4280                             CLR.L     D0
 4EB8 10EA                        JSR       $10EA
 4CDF 0013                        MOVEM.L   (A7)+,D0-D1/D4
 4280                             CLR.L     D0
 3002                             MOVE.W    D2,D0
 33C0 00FF0054                    MOVE.W    D0,$00FF0054
 4280                             CLR.L     D0
 3039 00FF004C                    MOVE.W    $00FF004C,D0
 2200                             MOVE.L    D0,D1
 203C 00000002                    MOVE.L    #$00000002,D0
 B041                             CMP.W     D1,D0
 54C0                             Invalid
 0280 00000001                    AND.L     #$00000001,D0
 4A00                             TST.B     D0
 6700 02A0                        BEQ       $0000355E(pc)
 203C 00000001                    MOVE.L    #$00000001,D0
 33C0 00FF0052                    MOVE.W    D0,$00FF0052
 207C 000050C9                    MOVE.L    #$000050C9,A0
 4EB8 1288                        JSR       $1288
 4EB8 181C                        JSR       $181C
 4EB8 25C8                        JSR       $25C8
 203C 000000C8                    MOVE.L    #$000000C8,D0
 4EB8 1064                        JSR       $1064
 203C 000003E8                    MOVE.L    #$000003E8,D0
 33C0 00FF004C                    MOVE.W    D0,$00FF004C
 203C 00000064                    MOVE.L    #$00000064,D0
 33C0 00FF004E                    MOVE.W    D0,$00FF004E
 203C 000003E8                    MOVE.L    #$000003E8,D0
 33C0 00FF0050                    MOVE.W    D0,$00FF0050
 203C 00000000                    MOVE.L    #$00000000,D0
 33C0 00FF0052                    MOVE.W    D0,$00FF0052
 207C 000050E1                    MOVE.L    #$000050E1,A0
 4EB8 1288                        JSR       $1288
 4EB8 181C                        JSR       $181C
 4EB8 25C8                        JSR       $25C8
 207C 000050E2                    MOVE.L    #$000050E2,A0
 4EB8 1288                        JSR       $1288
 4EB8 181C                        JSR       $181C
 4EB8 25C8                        JSR       $25C8
 207C 000050E3                    MOVE.L    #$000050E3,A0
 4EB8 1288                        JSR       $1288
 4EB8 181C                        JSR       $181C
 4EB8 25C8                        JSR       $25C8
 207C 000050E4                    MOVE.L    #$000050E4,A0
 4EB8 1288                        JSR       $1288
 4EB8 181C                        JSR       $181C
 4EB8 25C8                        JSR       $25C8
 207C 000050E5                    MOVE.L    #$000050E5,A0
 4EB8 1288                        JSR       $1288
 4EB8 181C                        JSR       $181C
 4EB8 25C8                        JSR       $25C8
 207C 000050E6                    MOVE.L    #$000050E6,A0
 4EB8 1288                        JSR       $1288
 4EB8 181C                        JSR       $181C
 4EB8 25C8                        JSR       $25C8
 207C 000050E7                    MOVE.L    #$000050E7,A0
 4EB8 1288                        JSR       $1288
 4EB8 181C                        JSR       $181C
 4EB8 25C8                        JSR       $25C8
 207C 000050E8                    MOVE.L    #$000050E8,A0
 4EB8 1288                        JSR       $1288
 4EB8 181C                        JSR       $181C
 4EB8 25C8                        JSR       $25C8
 207C 000050E9                    MOVE.L    #$000050E9,A0
 4EB8 1288                        JSR       $1288
 4EB8 181C                        JSR       $181C
 4EB8 25C8                        JSR       $25C8
 207C 000050EA                    MOVE.L    #$000050EA,A0
 4EB8 1288                        JSR       $1288
 4EB8 181C                        JSR       $181C
 4EB8 25C8                        JSR       $25C8
 207C 000050EB                    MOVE.L    #$000050EB,A0
 4EB8 1288                        JSR       $1288
 4EB8 181C                        JSR       $181C
 4EB8 25C8                        JSR       $25C8
 207C 000050EC                    MOVE.L    #$000050EC,A0
 4EB8 1288                        JSR       $1288
 4EB8 181C                        JSR       $181C
 4EB8 25C8                        JSR       $25C8
 207C 000050ED                    MOVE.L    #$000050ED,A0
 4EB8 1288                        JSR       $1288
 4EB8 181C                        JSR       $181C
 4EB8 25C8                        JSR       $25C8
 207C 000050EE                    MOVE.L    #$000050EE,A0
 4EB8 1288                        JSR       $1288
 4EB8 181C                        JSR       $181C
 4EB8 25C8                        JSR       $25C8
 207C 000050EF                    MOVE.L    #$000050EF,A0
 4EB8 1288                        JSR       $1288
 4EB8 181C                        JSR       $181C
 4EB8 25C8                        JSR       $25C8
 207C 000050F0                    MOVE.L    #$000050F0,A0
 4EB8 1288                        JSR       $1288
 4EB8 181C                        JSR       $181C
 4280                             CLR.L     D0
 3039 00FF004C                    MOVE.W    $00FF004C,D0
 4EB8 1742                        JSR       $1742
 207C 000050FC                    MOVE.L    #$000050FC,A0
 4EB8 1288                        JSR       $1288
 4EB8 181C                        JSR       $181C
 4EB8 25C8                        JSR       $25C8
 207C 000050FD                    MOVE.L    #$000050FD,A0
 4EB8 1288                        JSR       $1288
 4EB8 181C                        JSR       $181C
 4280                             CLR.L     D0
 3039 00FF004E                    MOVE.W    $00FF004E,D0
 4EB8 1742                        JSR       $1742
 207C 00005109                    MOVE.L    #$00005109,A0
 4EB8 1288                        JSR       $1288
 4EB8 181C                        JSR       $181C
 4EB8 25C8                        JSR       $25C8
 207C 0000510A                    MOVE.L    #$0000510A,A0
 4EB8 1288                        JSR       $1288
 4EB8 181C                        JSR       $181C
 4EB8 25C8                        JSR       $25C8
 207C 0000510B                    MOVE.L    #$0000510B,A0
 4EB8 1288                        JSR       $1288
 4EB8 181C                        JSR       $181C
 4280                             CLR.L     D0
 3039 00FF0050                    MOVE.W    $00FF0050,D0
 4EB8 1742                        JSR       $1742
 207C 00005118                    MOVE.L    #$00005118,A0
 4EB8 1288                        JSR       $1288
 4EB8 181C                        JSR       $181C
 4EB8 25C8                        JSR       $25C8
 207C 00005119                    MOVE.L    #$00005119,A0
 4EB8 1288                        JSR       $1288
 4EB8 181C                        JSR       $181C
 4EB8 25C8                        JSR       $25C8
 207C 0000511A                    MOVE.L    #$0000511A,A0
 4EB8 1288                        JSR       $1288
 4EB8 181C                        JSR       $181C
 4EB8 25C8                        JSR       $25C8
 207C 0000512D                    MOVE.L    #$0000512D,A0
 4EB8 1288                        JSR       $1288
 4EB8 181C                        JSR       $181C
 4EB8 25C8                        JSR       $25C8
 207C 0000512E                    MOVE.L    #$0000512E,A0
 4EB8 1288                        JSR       $1288
 4EB8 181C                        JSR       $181C
 4EB8 25C8                        JSR       $25C8
 207C 00005148                    MOVE.L    #$00005148,A0
 4EB8 1288                        JSR       $1288
 4EB8 181C                        JSR       $181C
 4EB8 25C8                        JSR       $25C8
 207C 00005149                    MOVE.L    #$00005149,A0
 4EB8 1288                        JSR       $1288
 4EB8 181C                        JSR       $181C
 4EB8 25C8                        JSR       $25C8
 207C 0000515E                    MOVE.L    #$0000515E,A0
 4EB8 1288                        JSR       $1288
 4EB8 181C                        JSR       $181C
 4EB8 25C8                        JSR       $25C8
 207C 0000515F                    MOVE.L    #$0000515F,A0
 4EB8 1288                        JSR       $1288
 4EB8 181C                        JSR       $181C
 4EB8 25C8                        JSR       $25C8
 207C 0000517E                    MOVE.L    #$0000517E,A0
 4EB8 1288                        JSR       $1288
 4EB8 181C                        JSR       $181C
 4EB8 25C8                        JSR       $25C8
 4280                             CLR.L     D0
 3039 00FF004C                    MOVE.W    $00FF004C,D0
 2200                             MOVE.L    D0,D1
 203C 0000EA60                    MOVE.L    #$0000EA60,D0
 B041                             CMP.W     D1,D0
 53C0                             Invalid
 0280 00000001                    AND.L     #$00000001,D0
 4A00                             TST.B     D0
 6700 02AC                        BEQ       $00003828(pc)
 203C 00000000                    MOVE.L    #$00000000,D0
 33C0 00FF004C                    MOVE.W    D0,$00FF004C
 203C 00000001                    MOVE.L    #$00000001,D0
 33C0 00FF0052                    MOVE.W    D0,$00FF0052
 207C 0000517F                    MOVE.L    #$0000517F,A0
 4EB8 1288                        JSR       $1288
 4EB8 181C                        JSR       $181C
 4EB8 25C8                        JSR       $25C8
 203C 000000C8                    MOVE.L    #$000000C8,D0
 4EB8 1064                        JSR       $1064
 203C 000003E8                    MOVE.L    #$000003E8,D0
 33C0 00FF004C                    MOVE.W    D0,$00FF004C
 203C 00000064                    MOVE.L    #$00000064,D0
 33C0 00FF004E                    MOVE.W    D0,$00FF004E
 203C 000003E8                    MOVE.L    #$000003E8,D0
 33C0 00FF0050                    MOVE.W    D0,$00FF0050
 203C 00000000                    MOVE.L    #$00000000,D0
 33C0 00FF0052                    MOVE.W    D0,$00FF0052
 207C 00005197                    MOVE.L    #$00005197,A0
 4EB8 1288                        JSR       $1288
 4EB8 181C                        JSR       $181C
 4EB8 25C8                        JSR       $25C8
 207C 00005198                    MOVE.L    #$00005198,A0
 4EB8 1288                        JSR       $1288
 4EB8 181C                        JSR       $181C
 4EB8 25C8                        JSR       $25C8
 207C 00005199                    MOVE.L    #$00005199,A0
 4EB8 1288                        JSR       $1288
 4EB8 181C                        JSR       $181C
 4EB8 25C8                        JSR       $25C8
 207C 0000519A                    MOVE.L    #$0000519A,A0
 4EB8 1288                        JSR       $1288
 4EB8 181C                        JSR       $181C
 4EB8 25C8                        JSR       $25C8
 207C 0000519B                    MOVE.L    #$0000519B,A0
 4EB8 1288                        JSR       $1288
 4EB8 181C                        JSR       $181C
 4EB8 25C8                        JSR       $25C8
 207C 0000519C                    MOVE.L    #$0000519C,A0
 4EB8 1288                        JSR       $1288
 4EB8 181C                        JSR       $181C
 4EB8 25C8                        JSR       $25C8
 207C 0000519D                    MOVE.L    #$0000519D,A0
 4EB8 1288                        JSR       $1288
 4EB8 181C                        JSR       $181C
 4EB8 25C8                        JSR       $25C8
 207C 0000519E                    MOVE.L    #$0000519E,A0
 4EB8 1288                        JSR       $1288
 4EB8 181C                        JSR       $181C
 4EB8 25C8                        JSR       $25C8
 207C 0000519F                    MOVE.L    #$0000519F,A0
 4EB8 1288                        JSR       $1288
 4EB8 181C                        JSR       $181C
 4EB8 25C8                        JSR       $25C8
 207C 000051A0                    MOVE.L    #$000051A0,A0
 4EB8 1288                        JSR       $1288
 4EB8 181C                        JSR       $181C
 4EB8 25C8                        JSR       $25C8
 207C 000051A1                    MOVE.L    #$000051A1,A0
 4EB8 1288                        JSR       $1288
 4EB8 181C                        JSR       $181C
 4EB8 25C8                        JSR       $25C8
 207C 000051A2                    MOVE.L    #$000051A2,A0
 4EB8 1288                        JSR       $1288
 4EB8 181C                        JSR       $181C
 4EB8 25C8                        JSR       $25C8
 207C 000051A3                    MOVE.L    #$000051A3,A0
 4EB8 1288                        JSR       $1288
 4EB8 181C                        JSR       $181C
 4EB8 25C8                        JSR       $25C8
 207C 000051A4                    MOVE.L    #$000051A4,A0
 4EB8 1288                        JSR       $1288
 4EB8 181C                        JSR       $181C
 4EB8 25C8                        JSR       $25C8
 207C 000051A5                    MOVE.L    #$000051A5,A0
 4EB8 1288                        JSR       $1288
 4EB8 181C                        JSR       $181C
 4EB8 25C8                        JSR       $25C8
 207C 000051A6                    MOVE.L    #$000051A6,A0
 4EB8 1288                        JSR       $1288
 4EB8 181C                        JSR       $181C
 4280                             CLR.L     D0
 3039 00FF004C                    MOVE.W    $00FF004C,D0
 4EB8 1742                        JSR       $1742
 207C 000051B2                    MOVE.L    #$000051B2,A0
 4EB8 1288                        JSR       $1288
 4EB8 181C                        JSR       $181C
 4EB8 25C8                        JSR       $25C8
 207C 000051B3                    MOVE.L    #$000051B3,A0
 4EB8 1288                        JSR       $1288
 4EB8 181C                        JSR       $181C
 4280                             CLR.L     D0
 3039 00FF004E                    MOVE.W    $00FF004E,D0
 4EB8 1742                        JSR       $1742
 207C 000051BF                    MOVE.L    #$000051BF,A0
 4EB8 1288                        JSR       $1288
 4EB8 181C                        JSR       $181C
 4EB8 25C8                        JSR       $25C8
 207C 000051C0                    MOVE.L    #$000051C0,A0
 4EB8 1288                        JSR       $1288
 4EB8 181C                        JSR       $181C
 4EB8 25C8                        JSR       $25C8
 207C 000051C1                    MOVE.L    #$000051C1,A0
 4EB8 1288                        JSR       $1288
 4EB8 181C                        JSR       $181C
 4280                             CLR.L     D0
 3039 00FF0050                    MOVE.W    $00FF0050,D0
 4EB8 1742                        JSR       $1742
 207C 000051CE                    MOVE.L    #$000051CE,A0
 4EB8 1288                        JSR       $1288
 4EB8 181C                        JSR       $181C
 4EB8 25C8                        JSR       $25C8
 207C 000051CF                    MOVE.L    #$000051CF,A0
 4EB8 1288                        JSR       $1288
 4EB8 181C                        JSR       $181C
 4EB8 25C8                        JSR       $25C8
 207C 000051D0                    MOVE.L    #$000051D0,A0
 4EB8 1288                        JSR       $1288
 4EB8 181C                        JSR       $181C
 4EB8 25C8                        JSR       $25C8
 207C 000051E3                    MOVE.L    #$000051E3,A0
 4EB8 1288                        JSR       $1288
 4EB8 181C                        JSR       $181C
 4EB8 25C8                        JSR       $25C8
 207C 000051E4                    MOVE.L    #$000051E4,A0
 4EB8 1288                        JSR       $1288
 4EB8 181C                        JSR       $181C
 4EB8 25C8                        JSR       $25C8
 207C 000051FE                    MOVE.L    #$000051FE,A0
 4EB8 1288                        JSR       $1288
 4EB8 181C                        JSR       $181C
 4EB8 25C8                        JSR       $25C8
 207C 000051FF                    MOVE.L    #$000051FF,A0
 4EB8 1288                        JSR       $1288
 4EB8 181C                        JSR       $181C
 4EB8 25C8                        JSR       $25C8
 207C 00005214                    MOVE.L    #$00005214,A0
 4EB8 1288                        JSR       $1288
 4EB8 181C                        JSR       $181C
 4EB8 25C8                        JSR       $25C8
 207C 00005215                    MOVE.L    #$00005215,A0
 4EB8 1288                        JSR       $1288
 4EB8 181C                        JSR       $181C
 4EB8 25C8                        JSR       $25C8
 207C 00005234                    MOVE.L    #$00005234,A0
 4EB8 1288                        JSR       $1288
 4EB8 181C                        JSR       $181C
 4EB8 25C8                        JSR       $25C8
 4280                             CLR.L     D0
 3039 00FF0050                    MOVE.W    $00FF0050,D0
 2200                             MOVE.L    D0,D1
 203C 00000002                    MOVE.L    #$00000002,D0
 B041                             CMP.W     D1,D0
 54C0                             Invalid
 0280 00000001                    AND.L     #$00000001,D0
 4A00                             TST.B     D0
 6700 02A0                        BEQ       $00003AE6(pc)
 203C 00000001                    MOVE.L    #$00000001,D0
 33C0 00FF0052                    MOVE.W    D0,$00FF0052
 207C 00005235                    MOVE.L    #$00005235,A0
 4EB8 1288                        JSR       $1288
 4EB8 181C                        JSR       $181C
 4EB8 25C8                        JSR       $25C8
 203C 000000C8                    MOVE.L    #$000000C8,D0
 4EB8 1064                        JSR       $1064
 203C 000003E8                    MOVE.L    #$000003E8,D0
 33C0 00FF004C                    MOVE.W    D0,$00FF004C
 203C 00000064                    MOVE.L    #$00000064,D0
 33C0 00FF004E                    MOVE.W    D0,$00FF004E
 203C 000003E8                    MOVE.L    #$000003E8,D0
 33C0 00FF0050                    MOVE.W    D0,$00FF0050
 203C 00000000                    MOVE.L    #$00000000,D0
 33C0 00FF0052                    MOVE.W    D0,$00FF0052
 207C 0000524C                    MOVE.L    #$0000524C,A0
 4EB8 1288                        JSR       $1288
 4EB8 181C                        JSR       $181C
 4EB8 25C8                        JSR       $25C8
 207C 0000524D                    MOVE.L    #$0000524D,A0
 4EB8 1288                        JSR       $1288
 4EB8 181C                        JSR       $181C
 4EB8 25C8                        JSR       $25C8
 207C 0000524E                    MOVE.L    #$0000524E,A0
 4EB8 1288                        JSR       $1288
 4EB8 181C                        JSR       $181C
 4EB8 25C8                        JSR       $25C8
 207C 0000524F                    MOVE.L    #$0000524F,A0
 4EB8 1288                        JSR       $1288
 4EB8 181C                        JSR       $181C
 4EB8 25C8                        JSR       $25C8
 207C 00005250                    MOVE.L    #$00005250,A0
 4EB8 1288                        JSR       $1288
 4EB8 181C                        JSR       $181C
 4EB8 25C8                        JSR       $25C8
 207C 00005251                    MOVE.L    #$00005251,A0
 4EB8 1288                        JSR       $1288
 4EB8 181C                        JSR       $181C
 4EB8 25C8                        JSR       $25C8
 207C 00005252                    MOVE.L    #$00005252,A0
 4EB8 1288                        JSR       $1288
 4EB8 181C                        JSR       $181C
 4EB8 25C8                        JSR       $25C8
 207C 00005253                    MOVE.L    #$00005253,A0
 4EB8 1288                        JSR       $1288
 4EB8 181C                        JSR       $181C
 4EB8 25C8                        JSR       $25C8
 207C 00005254                    MOVE.L    #$00005254,A0
 4EB8 1288                        JSR       $1288
 4EB8 181C                        JSR       $181C
 4EB8 25C8                        JSR       $25C8
 207C 00005255                    MOVE.L    #$00005255,A0
 4EB8 1288                        JSR       $1288
 4EB8 181C                        JSR       $181C
 4EB8 25C8                        JSR       $25C8
 207C 00005256                    MOVE.L    #$00005256,A0
 4EB8 1288                        JSR       $1288
 4EB8 181C                        JSR       $181C
 4EB8 25C8                        JSR       $25C8
 207C 00005257                    MOVE.L    #$00005257,A0
 4EB8 1288                        JSR       $1288
 4EB8 181C                        JSR       $181C
 4EB8 25C8                        JSR       $25C8
 207C 00005258                    MOVE.L    #$00005258,A0
 4EB8 1288                        JSR       $1288
 4EB8 181C                        JSR       $181C
 4EB8 25C8                        JSR       $25C8
 207C 00005259                    MOVE.L    #$00005259,A0
 4EB8 1288                        JSR       $1288
 4EB8 181C                        JSR       $181C
 4EB8 25C8                        JSR       $25C8
 207C 0000525A                    MOVE.L    #$0000525A,A0
 4EB8 1288                        JSR       $1288
 4EB8 181C                        JSR       $181C
 4EB8 25C8                        JSR       $25C8
 207C 0000525B                    MOVE.L    #$0000525B,A0
 4EB8 1288                        JSR       $1288
 4EB8 181C                        JSR       $181C
 4280                             CLR.L     D0
 3039 00FF004C                    MOVE.W    $00FF004C,D0
 4EB8 1742                        JSR       $1742
 207C 00005267                    MOVE.L    #$00005267,A0
 4EB8 1288                        JSR       $1288
 4EB8 181C                        JSR       $181C
 4EB8 25C8                        JSR       $25C8
 207C 00005268                    MOVE.L    #$00005268,A0
 4EB8 1288                        JSR       $1288
 4EB8 181C                        JSR       $181C
 4280                             CLR.L     D0
 3039 00FF004E                    MOVE.W    $00FF004E,D0
 4EB8 1742                        JSR       $1742
 207C 00005274                    MOVE.L    #$00005274,A0
 4EB8 1288                        JSR       $1288
 4EB8 181C                        JSR       $181C
 4EB8 25C8                        JSR       $25C8
 207C 00005275                    MOVE.L    #$00005275,A0
 4EB8 1288                        JSR       $1288
 4EB8 181C                        JSR       $181C
 4EB8 25C8                        JSR       $25C8
 207C 00005276                    MOVE.L    #$00005276,A0
 4EB8 1288                        JSR       $1288
 4EB8 181C                        JSR       $181C
 4280                             CLR.L     D0
 3039 00FF0050                    MOVE.W    $00FF0050,D0
 4EB8 1742                        JSR       $1742
 207C 00005283                    MOVE.L    #$00005283,A0
 4EB8 1288                        JSR       $1288
 4EB8 181C                        JSR       $181C
 4EB8 25C8                        JSR       $25C8
 207C 00005284                    MOVE.L    #$00005284,A0
 4EB8 1288                        JSR       $1288
 4EB8 181C                        JSR       $181C
 4EB8 25C8                        JSR       $25C8
 207C 00005285                    MOVE.L    #$00005285,A0
 4EB8 1288                        JSR       $1288
 4EB8 181C                        JSR       $181C
 4EB8 25C8                        JSR       $25C8
 207C 00005298                    MOVE.L    #$00005298,A0
 4EB8 1288                        JSR       $1288
 4EB8 181C                        JSR       $181C
 4EB8 25C8                        JSR       $25C8
 207C 00005299                    MOVE.L    #$00005299,A0
 4EB8 1288                        JSR       $1288
 4EB8 181C                        JSR       $181C
 4EB8 25C8                        JSR       $25C8
 207C 000052B3                    MOVE.L    #$000052B3,A0
 4EB8 1288                        JSR       $1288
 4EB8 181C                        JSR       $181C
 4EB8 25C8                        JSR       $25C8
 207C 000052B4                    MOVE.L    #$000052B4,A0
 4EB8 1288                        JSR       $1288
 4EB8 181C                        JSR       $181C
 4EB8 25C8                        JSR       $25C8
 207C 000052C9                    MOVE.L    #$000052C9,A0
 4EB8 1288                        JSR       $1288
 4EB8 181C                        JSR       $181C
 4EB8 25C8                        JSR       $25C8
 207C 000052CA                    MOVE.L    #$000052CA,A0
 4EB8 1288                        JSR       $1288
 4EB8 181C                        JSR       $181C
 4EB8 25C8                        JSR       $25C8
 207C 000052E9                    MOVE.L    #$000052E9,A0
 4EB8 1288                        JSR       $1288
 4EB8 181C                        JSR       $181C
 4EB8 25C8                        JSR       $25C8
 4280                             CLR.L     D0
 3039 00FF0050                    MOVE.W    $00FF0050,D0
 2200                             MOVE.L    D0,D1
 203C 0000EA60                    MOVE.L    #$0000EA60,D0
 B041                             CMP.W     D1,D0
 53C0                             Invalid
 0280 00000001                    AND.L     #$00000001,D0
 4A00                             TST.B     D0
 6700 02AC                        BEQ       $00003DB0(pc)
 203C 00000000                    MOVE.L    #$00000000,D0
 33C0 00FF0050                    MOVE.W    D0,$00FF0050
 203C 00000001                    MOVE.L    #$00000001,D0
 33C0 00FF0052                    MOVE.W    D0,$00FF0052
 207C 000052EA                    MOVE.L    #$000052EA,A0
 4EB8 1288                        JSR       $1288
 4EB8 181C                        JSR       $181C
 4EB8 25C8                        JSR       $25C8
 203C 000000C8                    MOVE.L    #$000000C8,D0
 4EB8 1064                        JSR       $1064
 203C 000003E8                    MOVE.L    #$000003E8,D0
 33C0 00FF004C                    MOVE.W    D0,$00FF004C
 203C 00000064                    MOVE.L    #$00000064,D0
 33C0 00FF004E                    MOVE.W    D0,$00FF004E
 203C 000003E8                    MOVE.L    #$000003E8,D0
 33C0 00FF0050                    MOVE.W    D0,$00FF0050
 203C 00000000                    MOVE.L    #$00000000,D0
 33C0 00FF0052                    MOVE.W    D0,$00FF0052
 207C 00005301                    MOVE.L    #$00005301,A0
 4EB8 1288                        JSR       $1288
 4EB8 181C                        JSR       $181C
 4EB8 25C8                        JSR       $25C8
 207C 00005302                    MOVE.L    #$00005302,A0
 4EB8 1288                        JSR       $1288
 4EB8 181C                        JSR       $181C
 4EB8 25C8                        JSR       $25C8
 207C 00005303                    MOVE.L    #$00005303,A0
 4EB8 1288                        JSR       $1288
 4EB8 181C                        JSR       $181C
 4EB8 25C8                        JSR       $25C8
 207C 00005304                    MOVE.L    #$00005304,A0
 4EB8 1288                        JSR       $1288
 4EB8 181C                        JSR       $181C
 4EB8 25C8                        JSR       $25C8
 207C 00005305                    MOVE.L    #$00005305,A0
 4EB8 1288                        JSR       $1288
 4EB8 181C                        JSR       $181C
 4EB8 25C8                        JSR       $25C8
 207C 00005306                    MOVE.L    #$00005306,A0
 4EB8 1288                        JSR       $1288
 4EB8 181C                        JSR       $181C
 4EB8 25C8                        JSR       $25C8
 207C 00005307                    MOVE.L    #$00005307,A0
 4EB8 1288                        JSR       $1288
 4EB8 181C                        JSR       $181C
 4EB8 25C8                        JSR       $25C8
 207C 00005308                    MOVE.L    #$00005308,A0
 4EB8 1288                        JSR       $1288
 4EB8 181C                        JSR       $181C
 4EB8 25C8                        JSR       $25C8
 207C 00005309                    MOVE.L    #$00005309,A0
 4EB8 1288                        JSR       $1288
 4EB8 181C                        JSR       $181C
 4EB8 25C8                        JSR       $25C8
 207C 0000530A                    MOVE.L    #$0000530A,A0
 4EB8 1288                        JSR       $1288
 4EB8 181C                        JSR       $181C
 4EB8 25C8                        JSR       $25C8
 207C 0000530B                    MOVE.L    #$0000530B,A0
 4EB8 1288                        JSR       $1288
 4EB8 181C                        JSR       $181C
 4EB8 25C8                        JSR       $25C8
 207C 0000530C                    MOVE.L    #$0000530C,A0
 4EB8 1288                        JSR       $1288
 4EB8 181C                        JSR       $181C
 4EB8 25C8                        JSR       $25C8
 207C 0000530D                    MOVE.L    #$0000530D,A0
 4EB8 1288                        JSR       $1288
 4EB8 181C                        JSR       $181C
 4EB8 25C8                        JSR       $25C8
 207C 0000530E                    MOVE.L    #$0000530E,A0
 4EB8 1288                        JSR       $1288
 4EB8 181C                        JSR       $181C
 4EB8 25C8                        JSR       $25C8
 207C 0000530F                    MOVE.L    #$0000530F,A0
 4EB8 1288                        JSR       $1288
 4EB8 181C                        JSR       $181C
 4EB8 25C8                        JSR       $25C8
 207C 00005310                    MOVE.L    #$00005310,A0
 4EB8 1288                        JSR       $1288
 4EB8 181C                        JSR       $181C
 4280                             CLR.L     D0
 3039 00FF004C                    MOVE.W    $00FF004C,D0
 4EB8 1742                        JSR       $1742
 207C 0000531C                    MOVE.L    #$0000531C,A0
 4EB8 1288                        JSR       $1288
 4EB8 181C                        JSR       $181C
 4EB8 25C8                        JSR       $25C8
 207C 0000531D                    MOVE.L    #$0000531D,A0
 4EB8 1288                        JSR       $1288
 4EB8 181C                        JSR       $181C
 4280                             CLR.L     D0
 3039 00FF004E                    MOVE.W    $00FF004E,D0
 4EB8 1742                        JSR       $1742
 207C 00005329                    MOVE.L    #$00005329,A0
 4EB8 1288                        JSR       $1288
 4EB8 181C                        JSR       $181C
 4EB8 25C8                        JSR       $25C8
 207C 0000532A                    MOVE.L    #$0000532A,A0
 4EB8 1288                        JSR       $1288
 4EB8 181C                        JSR       $181C
 4EB8 25C8                        JSR       $25C8
 207C 0000532B                    MOVE.L    #$0000532B,A0
 4EB8 1288                        JSR       $1288
 4EB8 181C                        JSR       $181C
 4280                             CLR.L     D0
 3039 00FF0050                    MOVE.W    $00FF0050,D0
 4EB8 1742                        JSR       $1742
 207C 00005338                    MOVE.L    #$00005338,A0
 4EB8 1288                        JSR       $1288
 4EB8 181C                        JSR       $181C
 4EB8 25C8                        JSR       $25C8
 207C 00005339                    MOVE.L    #$00005339,A0
 4EB8 1288                        JSR       $1288
 4EB8 181C                        JSR       $181C
 4EB8 25C8                        JSR       $25C8
 207C 0000533A                    MOVE.L    #$0000533A,A0
 4EB8 1288                        JSR       $1288
 4EB8 181C                        JSR       $181C
 4EB8 25C8                        JSR       $25C8
 207C 0000534D                    MOVE.L    #$0000534D,A0
 4EB8 1288                        JSR       $1288
 4EB8 181C                        JSR       $181C
 4EB8 25C8                        JSR       $25C8
 207C 0000534E                    MOVE.L    #$0000534E,A0
 4EB8 1288                        JSR       $1288
 4EB8 181C                        JSR       $181C
 4EB8 25C8                        JSR       $25C8
 207C 00005368                    MOVE.L    #$00005368,A0
 4EB8 1288                        JSR       $1288
 4EB8 181C                        JSR       $181C
 4EB8 25C8                        JSR       $25C8
 207C 00005369                    MOVE.L    #$00005369,A0
 4EB8 1288                        JSR       $1288
 4EB8 181C                        JSR       $181C
 4EB8 25C8                        JSR       $25C8
 207C 0000537E                    MOVE.L    #$0000537E,A0
 4EB8 1288                        JSR       $1288
 4EB8 181C                        JSR       $181C
 4EB8 25C8                        JSR       $25C8
 207C 0000537F                    MOVE.L    #$0000537F,A0
 4EB8 1288                        JSR       $1288
 4EB8 181C                        JSR       $181C
 4EB8 25C8                        JSR       $25C8
 207C 0000539E                    MOVE.L    #$0000539E,A0
 4EB8 1288                        JSR       $1288
 4EB8 181C                        JSR       $181C
 4EB8 25C8                        JSR       $25C8
 4280                             CLR.L     D0
 3039 00FF004C                    MOVE.W    $00FF004C,D0
 2200                             MOVE.L    D0,D1
 203C 00000002                    MOVE.L    #$00000002,D0
 B041                             CMP.W     D1,D0
 54C0                             Invalid
 0280 00000001                    AND.L     #$00000001,D0
 4A00                             TST.B     D0
 6700 02C0                        BEQ       $0000408E(pc)
 4280                             CLR.L     D0
 3039 00FF0050                    MOVE.W    $00FF0050,D0
 2200                             MOVE.L    D0,D1
 203C 00000002                    MOVE.L    #$00000002,D0
 B041                             CMP.W     D1,D0
 54C0                             Invalid
 0280 00000001                    AND.L     #$00000001,D0
 4A00                             TST.B     D0
 6700 02A0                        BEQ       $0000408E(pc)
 203C 00000001                    MOVE.L    #$00000001,D0
 33C0 00FF0052                    MOVE.W    D0,$00FF0052
 207C 0000539F                    MOVE.L    #$0000539F,A0
 4EB8 1288                        JSR       $1288
 4EB8 181C                        JSR       $181C
 4EB8 25C8                        JSR       $25C8
 203C 000000C8                    MOVE.L    #$000000C8,D0
 4EB8 1064                        JSR       $1064
 203C 000003E8                    MOVE.L    #$000003E8,D0
 33C0 00FF004C                    MOVE.W    D0,$00FF004C
 203C 00000064                    MOVE.L    #$00000064,D0
 33C0 00FF004E                    MOVE.W    D0,$00FF004E
 203C 000003E8                    MOVE.L    #$000003E8,D0
 33C0 00FF0050                    MOVE.W    D0,$00FF0050
 203C 00000000                    MOVE.L    #$00000000,D0
 33C0 00FF0052                    MOVE.W    D0,$00FF0052
 207C 000053A8                    MOVE.L    #$000053A8,A0
 4EB8 1288                        JSR       $1288
 4EB8 181C                        JSR       $181C
 4EB8 25C8                        JSR       $25C8
 207C 000053A9                    MOVE.L    #$000053A9,A0
 4EB8 1288                        JSR       $1288
 4EB8 181C                        JSR       $181C
 4EB8 25C8                        JSR       $25C8
 207C 000053AA                    MOVE.L    #$000053AA,A0
 4EB8 1288                        JSR       $1288
 4EB8 181C                        JSR       $181C
 4EB8 25C8                        JSR       $25C8
 207C 000053AB                    MOVE.L    #$000053AB,A0
 4EB8 1288                        JSR       $1288
 4EB8 181C                        JSR       $181C
 4EB8 25C8                        JSR       $25C8
 207C 000053AC                    MOVE.L    #$000053AC,A0
 4EB8 1288                        JSR       $1288
 4EB8 181C                        JSR       $181C
 4EB8 25C8                        JSR       $25C8
 207C 000053AD                    MOVE.L    #$000053AD,A0
 4EB8 1288                        JSR       $1288
 4EB8 181C                        JSR       $181C
 4EB8 25C8                        JSR       $25C8
 207C 000053AE                    MOVE.L    #$000053AE,A0
 4EB8 1288                        JSR       $1288
 4EB8 181C                        JSR       $181C
 4EB8 25C8                        JSR       $25C8
 207C 000053AF                    MOVE.L    #$000053AF,A0
 4EB8 1288                        JSR       $1288
 4EB8 181C                        JSR       $181C
 4EB8 25C8                        JSR       $25C8
 207C 000053B0                    MOVE.L    #$000053B0,A0
 4EB8 1288                        JSR       $1288
 4EB8 181C                        JSR       $181C
 4EB8 25C8                        JSR       $25C8
 207C 000053B1                    MOVE.L    #$000053B1,A0
 4EB8 1288                        JSR       $1288
 4EB8 181C                        JSR       $181C
 4EB8 25C8                        JSR       $25C8
 207C 000053B2                    MOVE.L    #$000053B2,A0
 4EB8 1288                        JSR       $1288
 4EB8 181C                        JSR       $181C
 4EB8 25C8                        JSR       $25C8
 207C 000053B3                    MOVE.L    #$000053B3,A0
 4EB8 1288                        JSR       $1288
 4EB8 181C                        JSR       $181C
 4EB8 25C8                        JSR       $25C8
 207C 000053B4                    MOVE.L    #$000053B4,A0
 4EB8 1288                        JSR       $1288
 4EB8 181C                        JSR       $181C
 4EB8 25C8                        JSR       $25C8
 207C 000053B5                    MOVE.L    #$000053B5,A0
 4EB8 1288                        JSR       $1288
 4EB8 181C                        JSR       $181C
 4EB8 25C8                        JSR       $25C8
 207C 000053B6                    MOVE.L    #$000053B6,A0
 4EB8 1288                        JSR       $1288
 4EB8 181C                        JSR       $181C
 4EB8 25C8                        JSR       $25C8
 207C 000053B7                    MOVE.L    #$000053B7,A0
 4EB8 1288                        JSR       $1288
 4EB8 181C                        JSR       $181C
 4280                             CLR.L     D0
 3039 00FF004C                    MOVE.W    $00FF004C,D0
 4EB8 1742                        JSR       $1742
 207C 000053C3                    MOVE.L    #$000053C3,A0
 4EB8 1288                        JSR       $1288
 4EB8 181C                        JSR       $181C
 4EB8 25C8                        JSR       $25C8
 207C 000053C4                    MOVE.L    #$000053C4,A0
 4EB8 1288                        JSR       $1288
 4EB8 181C                        JSR       $181C
 4280                             CLR.L     D0
 3039 00FF004E                    MOVE.W    $00FF004E,D0
 4EB8 1742                        JSR       $1742
 207C 000053D0                    MOVE.L    #$000053D0,A0
 4EB8 1288                        JSR       $1288
 4EB8 181C                        JSR       $181C
 4EB8 25C8                        JSR       $25C8
 207C 000053D1                    MOVE.L    #$000053D1,A0
 4EB8 1288                        JSR       $1288
 4EB8 181C                        JSR       $181C
 4EB8 25C8                        JSR       $25C8
 207C 000053D2                    MOVE.L    #$000053D2,A0
 4EB8 1288                        JSR       $1288
 4EB8 181C                        JSR       $181C
 4280                             CLR.L     D0
 3039 00FF0050                    MOVE.W    $00FF0050,D0
 4EB8 1742                        JSR       $1742
 207C 000053DF                    MOVE.L    #$000053DF,A0
 4EB8 1288                        JSR       $1288
 4EB8 181C                        JSR       $181C
 4EB8 25C8                        JSR       $25C8
 207C 000053E0                    MOVE.L    #$000053E0,A0
 4EB8 1288                        JSR       $1288
 4EB8 181C                        JSR       $181C
 4EB8 25C8                        JSR       $25C8
 207C 000053E1                    MOVE.L    #$000053E1,A0
 4EB8 1288                        JSR       $1288
 4EB8 181C                        JSR       $181C
 4EB8 25C8                        JSR       $25C8
 207C 000053F4                    MOVE.L    #$000053F4,A0
 4EB8 1288                        JSR       $1288
 4EB8 181C                        JSR       $181C
 4EB8 25C8                        JSR       $25C8
 207C 000053F5                    MOVE.L    #$000053F5,A0
 4EB8 1288                        JSR       $1288
 4EB8 181C                        JSR       $181C
 4EB8 25C8                        JSR       $25C8
 207C 0000540F                    MOVE.L    #$0000540F,A0
 4EB8 1288                        JSR       $1288
 4EB8 181C                        JSR       $181C
 4EB8 25C8                        JSR       $25C8
 207C 00005410                    MOVE.L    #$00005410,A0
 4EB8 1288                        JSR       $1288
 4EB8 181C                        JSR       $181C
 4EB8 25C8                        JSR       $25C8
 207C 00005425                    MOVE.L    #$00005425,A0
 4EB8 1288                        JSR       $1288
 4EB8 181C                        JSR       $181C
 4EB8 25C8                        JSR       $25C8
 207C 00005426                    MOVE.L    #$00005426,A0
 4EB8 1288                        JSR       $1288
 4EB8 181C                        JSR       $181C
 4EB8 25C8                        JSR       $25C8
 207C 00005445                    MOVE.L    #$00005445,A0
 4EB8 1288                        JSR       $1288
 4EB8 181C                        JSR       $181C
 4EB8 25C8                        JSR       $25C8
 4280                             CLR.L     D0
 3039 00FF004C                    MOVE.W    $00FF004C,D0
 2200                             MOVE.L    D0,D1
 203C 0000EA60                    MOVE.L    #$0000EA60,D0
 B041                             CMP.W     D1,D0
 53C0                             Invalid
 0280 00000001                    AND.L     #$00000001,D0
 4A00                             TST.B     D0
 6700 02D8                        BEQ       $00004384(pc)
 4280                             CLR.L     D0
 3039 00FF0050                    MOVE.W    $00FF0050,D0
 2200                             MOVE.L    D0,D1
 203C 0000EA60                    MOVE.L    #$0000EA60,D0
 B041                             CMP.W     D1,D0
 53C0                             Invalid
 0280 00000001                    AND.L     #$00000001,D0
 4A00                             TST.B     D0
 6700 02B8                        BEQ       $00004384(pc)
 203C 00000000                    MOVE.L    #$00000000,D0
 33C0 00FF0050                    MOVE.W    D0,$00FF0050
 203C 00000000                    MOVE.L    #$00000000,D0
 33C0 00FF004C                    MOVE.W    D0,$00FF004C
 203C 00000001                    MOVE.L    #$00000001,D0
 33C0 00FF0052                    MOVE.W    D0,$00FF0052
 207C 00005446                    MOVE.L    #$00005446,A0
 4EB8 1288                        JSR       $1288
 4EB8 181C                        JSR       $181C
 4EB8 25C8                        JSR       $25C8
 203C 000000C8                    MOVE.L    #$000000C8,D0
 4EB8 1064                        JSR       $1064
 203C 000003E8                    MOVE.L    #$000003E8,D0
 33C0 00FF004C                    MOVE.W    D0,$00FF004C
 203C 00000064                    MOVE.L    #$00000064,D0
 33C0 00FF004E                    MOVE.W    D0,$00FF004E
 203C 000003E8                    MOVE.L    #$000003E8,D0
 33C0 00FF0050                    MOVE.W    D0,$00FF0050
 203C 00000000                    MOVE.L    #$00000000,D0
 33C0 00FF0052                    MOVE.W    D0,$00FF0052
 207C 0000544F                    MOVE.L    #$0000544F,A0
 4EB8 1288                        JSR       $1288
 4EB8 181C                        JSR       $181C
 4EB8 25C8                        JSR       $25C8
 207C 00005450                    MOVE.L    #$00005450,A0
 4EB8 1288                        JSR       $1288
 4EB8 181C                        JSR       $181C
 4EB8 25C8                        JSR       $25C8
 207C 00005451                    MOVE.L    #$00005451,A0
 4EB8 1288                        JSR       $1288
 4EB8 181C                        JSR       $181C
 4EB8 25C8                        JSR       $25C8
 207C 00005452                    MOVE.L    #$00005452,A0
 4EB8 1288                        JSR       $1288
 4EB8 181C                        JSR       $181C
 4EB8 25C8                        JSR       $25C8
 207C 00005453                    MOVE.L    #$00005453,A0
 4EB8 1288                        JSR       $1288
 4EB8 181C                        JSR       $181C
 4EB8 25C8                        JSR       $25C8
 207C 00005454                    MOVE.L    #$00005454,A0
 4EB8 1288                        JSR       $1288
 4EB8 181C                        JSR       $181C
 4EB8 25C8                        JSR       $25C8
 207C 00005455                    MOVE.L    #$00005455,A0
 4EB8 1288                        JSR       $1288
 4EB8 181C                        JSR       $181C
 4EB8 25C8                        JSR       $25C8
 207C 00005456                    MOVE.L    #$00005456,A0
 4EB8 1288                        JSR       $1288
 4EB8 181C                        JSR       $181C
 4EB8 25C8                        JSR       $25C8
 207C 00005457                    MOVE.L    #$00005457,A0
 4EB8 1288                        JSR       $1288
 4EB8 181C                        JSR       $181C
 4EB8 25C8                        JSR       $25C8
 207C 00005458                    MOVE.L    #$00005458,A0
 4EB8 1288                        JSR       $1288
 4EB8 181C                        JSR       $181C
 4EB8 25C8                        JSR       $25C8
 207C 00005459                    MOVE.L    #$00005459,A0
 4EB8 1288                        JSR       $1288
 4EB8 181C                        JSR       $181C
 4EB8 25C8                        JSR       $25C8
 207C 0000545A                    MOVE.L    #$0000545A,A0
 4EB8 1288                        JSR       $1288
 4EB8 181C                        JSR       $181C
 4EB8 25C8                        JSR       $25C8
 207C 0000545B                    MOVE.L    #$0000545B,A0
 4EB8 1288                        JSR       $1288
 4EB8 181C                        JSR       $181C
 4EB8 25C8                        JSR       $25C8
 207C 0000545C                    MOVE.L    #$0000545C,A0
 4EB8 1288                        JSR       $1288
 4EB8 181C                        JSR       $181C
 4EB8 25C8                        JSR       $25C8
 207C 0000545D                    MOVE.L    #$0000545D,A0
 4EB8 1288                        JSR       $1288
 4EB8 181C                        JSR       $181C
 4EB8 25C8                        JSR       $25C8
 207C 0000545E                    MOVE.L    #$0000545E,A0
 4EB8 1288                        JSR       $1288
 4EB8 181C                        JSR       $181C
 4280                             CLR.L     D0
 3039 00FF004C                    MOVE.W    $00FF004C,D0
 4EB8 1742                        JSR       $1742
 207C 0000546A                    MOVE.L    #$0000546A,A0
 4EB8 1288                        JSR       $1288
 4EB8 181C                        JSR       $181C
 4EB8 25C8                        JSR       $25C8
 207C 0000546B                    MOVE.L    #$0000546B,A0
 4EB8 1288                        JSR       $1288
 4EB8 181C                        JSR       $181C
 4280                             CLR.L     D0
 3039 00FF004E                    MOVE.W    $00FF004E,D0
 4EB8 1742                        JSR       $1742
 207C 00005477                    MOVE.L    #$00005477,A0
 4EB8 1288                        JSR       $1288
 4EB8 181C                        JSR       $181C
 4EB8 25C8                        JSR       $25C8
 207C 00005478                    MOVE.L    #$00005478,A0
 4EB8 1288                        JSR       $1288
 4EB8 181C                        JSR       $181C
 4EB8 25C8                        JSR       $25C8
 207C 00005479                    MOVE.L    #$00005479,A0
 4EB8 1288                        JSR       $1288
 4EB8 181C                        JSR       $181C
 4280                             CLR.L     D0
 3039 00FF0050                    MOVE.W    $00FF0050,D0
 4EB8 1742                        JSR       $1742
 207C 00005486                    MOVE.L    #$00005486,A0
 4EB8 1288                        JSR       $1288
 4EB8 181C                        JSR       $181C
 4EB8 25C8                        JSR       $25C8
 207C 00005487                    MOVE.L    #$00005487,A0
 4EB8 1288                        JSR       $1288
 4EB8 181C                        JSR       $181C
 4EB8 25C8                        JSR       $25C8
 207C 00005488                    MOVE.L    #$00005488,A0
 4EB8 1288                        JSR       $1288
 4EB8 181C                        JSR       $181C
 4EB8 25C8                        JSR       $25C8
 207C 0000549B                    MOVE.L    #$0000549B,A0
 4EB8 1288                        JSR       $1288
 4EB8 181C                        JSR       $181C
 4EB8 25C8                        JSR       $25C8
 207C 0000549C                    MOVE.L    #$0000549C,A0
 4EB8 1288                        JSR       $1288
 4EB8 181C                        JSR       $181C
 4EB8 25C8                        JSR       $25C8
 207C 000054B6                    MOVE.L    #$000054B6,A0
 4EB8 1288                        JSR       $1288
 4EB8 181C                        JSR       $181C
 4EB8 25C8                        JSR       $25C8
 207C 000054B7                    MOVE.L    #$000054B7,A0
 4EB8 1288                        JSR       $1288
 4EB8 181C                        JSR       $181C
 4EB8 25C8                        JSR       $25C8
 207C 000054CC                    MOVE.L    #$000054CC,A0
 4EB8 1288                        JSR       $1288
 4EB8 181C                        JSR       $181C
 4EB8 25C8                        JSR       $25C8
 207C 000054CD                    MOVE.L    #$000054CD,A0
 4EB8 1288                        JSR       $1288
 4EB8 181C                        JSR       $181C
 4EB8 25C8                        JSR       $25C8
 207C 000054EC                    MOVE.L    #$000054EC,A0
 4EB8 1288                        JSR       $1288
 4EB8 181C                        JSR       $181C
 4EB8 25C8                        JSR       $25C8
 3439 00FF0054                    MOVE.W    $00FF0054,D2
 0802 0000                        BTST      #$00,D2
 56C2                             Invalid
 0282 00000001                    AND.L     #$00000001,D2
 4280                             CLR.L     D0
 3002                             MOVE.W    D2,D0
 4A00                             TST.B     D0
 6700 030E                        BEQ       $000046AC(pc)
 4280                             CLR.L     D0
 3039 00FF0052                    MOVE.W    $00FF0052,D0
 2200                             MOVE.L    D0,D1
 203C 00000000                    MOVE.L    #$00000000,D0
 B041                             CMP.W     D1,D0
 57C0                             Invalid
 0280 00000001                    AND.L     #$00000001,D0
 4A00                             TST.B     D0
 6700 02EE                        BEQ       $000046AC(pc)
 207C 000054ED                    MOVE.L    #$000054ED,A0
 4EB8 1288                        JSR       $1288
 4EB8 181C                        JSR       $181C
 4EB8 25C8                        JSR       $25C8
 203C 00000032                    MOVE.L    #$00000032,D0
 4EB8 1064                        JSR       $1064
 207C 000054FC                    MOVE.L    #$000054FC,A0
 4EB8 1288                        JSR       $1288
 4EB8 181C                        JSR       $181C
 4EB8 25C8                        JSR       $25C8
 4280                             CLR.L     D0
 3039 00FF0050                    MOVE.W    $00FF0050,D0
 0440 0064                        SUB.W     #$0064,D0
 33C0 00FF0050                    MOVE.W    D0,$00FF0050
 203C 00000032                    MOVE.L    #$00000032,D0
 4EB8 1064                        JSR       $1064
 207C 00005510                    MOVE.L    #$00005510,A0
 4EB8 1288                        JSR       $1288
 4EB8 181C                        JSR       $181C
 4EB8 25C8                        JSR       $25C8
 203C 00000032                    MOVE.L    #$00000032,D0
 4EB8 1064                        JSR       $1064
 4280                             CLR.L     D0
 3039 00FF004C                    MOVE.W    $00FF004C,D0
 0440 0078                        SUB.W     #$0078,D0
 33C0 00FF004C                    MOVE.W    D0,$00FF004C
 207C 00005520                    MOVE.L    #$00005520,A0
 4EB8 1288                        JSR       $1288
 4EB8 181C                        JSR       $181C
 4EB8 25C8                        JSR       $25C8
 203C 00000064                    MOVE.L    #$00000064,D0
 4EB8 1064                        JSR       $1064
 207C 00005533                    MOVE.L    #$00005533,A0
 4EB8 1288                        JSR       $1288
 4EB8 181C                        JSR       $181C
 4EB8 25C8                        JSR       $25C8
 207C 00005534                    MOVE.L    #$00005534,A0
 4EB8 1288                        JSR       $1288
 4EB8 181C                        JSR       $181C
 4EB8 25C8                        JSR       $25C8
 207C 00005535                    MOVE.L    #$00005535,A0
 4EB8 1288                        JSR       $1288
 4EB8 181C                        JSR       $181C
 4EB8 25C8                        JSR       $25C8
 207C 00005536                    MOVE.L    #$00005536,A0
 4EB8 1288                        JSR       $1288
 4EB8 181C                        JSR       $181C
 4EB8 25C8                        JSR       $25C8
 207C 00005537                    MOVE.L    #$00005537,A0
 4EB8 1288                        JSR       $1288
 4EB8 181C                        JSR       $181C
 4EB8 25C8                        JSR       $25C8
 207C 00005538                    MOVE.L    #$00005538,A0
 4EB8 1288                        JSR       $1288
 4EB8 181C                        JSR       $181C
 4EB8 25C8                        JSR       $25C8
 207C 00005539                    MOVE.L    #$00005539,A0
 4EB8 1288                        JSR       $1288
 4EB8 181C                        JSR       $181C
 4EB8 25C8                        JSR       $25C8
 207C 0000553A                    MOVE.L    #$0000553A,A0
 4EB8 1288                        JSR       $1288
 4EB8 181C                        JSR       $181C
 4EB8 25C8                        JSR       $25C8
 207C 0000553B                    MOVE.L    #$0000553B,A0
 4EB8 1288                        JSR       $1288
 4EB8 181C                        JSR       $181C
 4EB8 25C8                        JSR       $25C8
 207C 0000553C                    MOVE.L    #$0000553C,A0
 4EB8 1288                        JSR       $1288
 4EB8 181C                        JSR       $181C
 4EB8 25C8                        JSR       $25C8
 207C 0000553D                    MOVE.L    #$0000553D,A0
 4EB8 1288                        JSR       $1288
 4EB8 181C                        JSR       $181C
 4EB8 25C8                        JSR       $25C8
 207C 0000553E                    MOVE.L    #$0000553E,A0
 4EB8 1288                        JSR       $1288
 4EB8 181C                        JSR       $181C
 4EB8 25C8                        JSR       $25C8
 207C 0000553F                    MOVE.L    #$0000553F,A0
 4EB8 1288                        JSR       $1288
 4EB8 181C                        JSR       $181C
 4EB8 25C8                        JSR       $25C8
 207C 00005540                    MOVE.L    #$00005540,A0
 4EB8 1288                        JSR       $1288
 4EB8 181C                        JSR       $181C
 4EB8 25C8                        JSR       $25C8
 207C 00005541                    MOVE.L    #$00005541,A0
 4EB8 1288                        JSR       $1288
 4EB8 181C                        JSR       $181C
 4EB8 25C8                        JSR       $25C8
 207C 00005542                    MOVE.L    #$00005542,A0
 4EB8 1288                        JSR       $1288
 4EB8 181C                        JSR       $181C
 4280                             CLR.L     D0
 3039 00FF004C                    MOVE.W    $00FF004C,D0
 4EB8 1742                        JSR       $1742
 207C 0000554E                    MOVE.L    #$0000554E,A0
 4EB8 1288                        JSR       $1288
 4EB8 181C                        JSR       $181C
 4EB8 25C8                        JSR       $25C8
 207C 0000554F                    MOVE.L    #$0000554F,A0
 4EB8 1288                        JSR       $1288
 4EB8 181C                        JSR       $181C
 4280                             CLR.L     D0
 3039 00FF004E                    MOVE.W    $00FF004E,D0
 4EB8 1742                        JSR       $1742
 207C 0000555B                    MOVE.L    #$0000555B,A0
 4EB8 1288                        JSR       $1288
 4EB8 181C                        JSR       $181C
 4EB8 25C8                        JSR       $25C8
 207C 0000555C                    MOVE.L    #$0000555C,A0
 4EB8 1288                        JSR       $1288
 4EB8 181C                        JSR       $181C
 4EB8 25C8                        JSR       $25C8
 207C 0000555D                    MOVE.L    #$0000555D,A0
 4EB8 1288                        JSR       $1288
 4EB8 181C                        JSR       $181C
 4280                             CLR.L     D0
 3039 00FF0050                    MOVE.W    $00FF0050,D0
 4EB8 1742                        JSR       $1742
 207C 0000556A                    MOVE.L    #$0000556A,A0
 4EB8 1288                        JSR       $1288
 4EB8 181C                        JSR       $181C
 4EB8 25C8                        JSR       $25C8
 207C 0000556B                    MOVE.L    #$0000556B,A0
 4EB8 1288                        JSR       $1288
 4EB8 181C                        JSR       $181C
 4EB8 25C8                        JSR       $25C8
 207C 0000556C                    MOVE.L    #$0000556C,A0
 4EB8 1288                        JSR       $1288
 4EB8 181C                        JSR       $181C
 4EB8 25C8                        JSR       $25C8
 207C 0000557F                    MOVE.L    #$0000557F,A0
 4EB8 1288                        JSR       $1288
 4EB8 181C                        JSR       $181C
 4EB8 25C8                        JSR       $25C8
 207C 00005580                    MOVE.L    #$00005580,A0
 4EB8 1288                        JSR       $1288
 4EB8 181C                        JSR       $181C
 4EB8 25C8                        JSR       $25C8
 207C 0000559A                    MOVE.L    #$0000559A,A0
 4EB8 1288                        JSR       $1288
 4EB8 181C                        JSR       $181C
 4EB8 25C8                        JSR       $25C8
 207C 0000559B                    MOVE.L    #$0000559B,A0
 4EB8 1288                        JSR       $1288
 4EB8 181C                        JSR       $181C
 4EB8 25C8                        JSR       $25C8
 207C 000055B0                    MOVE.L    #$000055B0,A0
 4EB8 1288                        JSR       $1288
 4EB8 181C                        JSR       $181C
 4EB8 25C8                        JSR       $25C8
 207C 000055B1                    MOVE.L    #$000055B1,A0
 4EB8 1288                        JSR       $1288
 4EB8 181C                        JSR       $181C
 4EB8 25C8                        JSR       $25C8
 207C 000055D0                    MOVE.L    #$000055D0,A0
 4EB8 1288                        JSR       $1288
 4EB8 181C                        JSR       $181C
 4EB8 25C8                        JSR       $25C8
 207C 000055D1                    MOVE.L    #$000055D1,A0
 4EB8 1288                        JSR       $1288
 4EB8 181C                        JSR       $181C
 4EB8 25C8                        JSR       $25C8
 3439 00FF0054                    MOVE.W    $00FF0054,D2
 0802 0001                        BTST      #$01,D2
 56C2                             Invalid
 0282 00000001                    AND.L     #$00000001,D2
 4280                             CLR.L     D0
 3002                             MOVE.W    D2,D0
 4A00                             TST.B     D0
 6700 0340                        BEQ       $00004A06(pc)
 4280                             CLR.L     D0
 3039 00FF004E                    MOVE.W    $00FF004E,D0
 2200                             MOVE.L    D0,D1
 203C 0000004A                    MOVE.L    #$0000004A,D0
 B041                             CMP.W     D1,D0
 55C0                             Invalid
 0280 00000001                    AND.L     #$00000001,D0
 4A00                             TST.B     D0
 6700 0320                        BEQ       $00004A06(pc)
 4280                             CLR.L     D0
 3039 00FF0052                    MOVE.W    $00FF0052,D0
 2200                             MOVE.L    D0,D1
 203C 00000000                    MOVE.L    #$00000000,D0
 B041                             CMP.W     D1,D0
 57C0                             Invalid
 0280 00000001                    AND.L     #$00000001,D0
 4A00                             TST.B     D0
 6700 0300                        BEQ       $00004A06(pc)
 4280                             CLR.L     D0
 3039 00FF004E                    MOVE.W    $00FF004E,D0
 0440 004B                        SUB.W     #$004B,D0
 33C0 00FF004E                    MOVE.W    D0,$00FF004E
 207C 000055D2                    MOVE.L    #$000055D2,A0
 4EB8 1288                        JSR       $1288
 4EB8 181C                        JSR       $181C
 4EB8 25C8                        JSR       $25C8
 203C 00000032                    MOVE.L    #$00000032,D0
 4EB8 1064                        JSR       $1064
 207C 000055EB                    MOVE.L    #$000055EB,A0
 4EB8 1288                        JSR       $1288
 4EB8 181C                        JSR       $181C
 4EB8 25C8                        JSR       $25C8
 4280                             CLR.L     D0
 3039 00FF0050                    MOVE.W    $00FF0050,D0
 0440 0140                        SUB.W     #$0140,D0
 33C0 00FF0050                    MOVE.W    D0,$00FF0050
 203C 00000032                    MOVE.L    #$00000032,D0
 4EB8 1064                        JSR       $1064
 207C 000055FF                    MOVE.L    #$000055FF,A0
 4EB8 1288                        JSR       $1288
 4EB8 181C                        JSR       $181C
 4EB8 25C8                        JSR       $25C8
 203C 00000032                    MOVE.L    #$00000032,D0
 4EB8 1064                        JSR       $1064
 4280                             CLR.L     D0
 3039 00FF004C                    MOVE.W    $00FF004C,D0
 0440 0078                        SUB.W     #$0078,D0
 33C0 00FF004C                    MOVE.W    D0,$00FF004C
 207C 0000560F                    MOVE.L    #$0000560F,A0
 4EB8 1288                        JSR       $1288
 4EB8 181C                        JSR       $181C
 4EB8 25C8                        JSR       $25C8
 203C 00000064                    MOVE.L    #$00000064,D0
 4EB8 1064                        JSR       $1064
 207C 00005622                    MOVE.L    #$00005622,A0
 4EB8 1288                        JSR       $1288
 4EB8 181C                        JSR       $181C
 4EB8 25C8                        JSR       $25C8
 207C 00005623                    MOVE.L    #$00005623,A0
 4EB8 1288                        JSR       $1288
 4EB8 181C                        JSR       $181C
 4EB8 25C8                        JSR       $25C8
 207C 00005624                    MOVE.L    #$00005624,A0
 4EB8 1288                        JSR       $1288
 4EB8 181C                        JSR       $181C
 4EB8 25C8                        JSR       $25C8
 207C 00005625                    MOVE.L    #$00005625,A0
 4EB8 1288                        JSR       $1288
 4EB8 181C                        JSR       $181C
 4EB8 25C8                        JSR       $25C8
 207C 00005626                    MOVE.L    #$00005626,A0
 4EB8 1288                        JSR       $1288
 4EB8 181C                        JSR       $181C
 4EB8 25C8                        JSR       $25C8
 207C 00005627                    MOVE.L    #$00005627,A0
 4EB8 1288                        JSR       $1288
 4EB8 181C                        JSR       $181C
 4EB8 25C8                        JSR       $25C8
 207C 00005628                    MOVE.L    #$00005628,A0
 4EB8 1288                        JSR       $1288
 4EB8 181C                        JSR       $181C
 4EB8 25C8                        JSR       $25C8
 207C 00005629                    MOVE.L    #$00005629,A0
 4EB8 1288                        JSR       $1288
 4EB8 181C                        JSR       $181C
 4EB8 25C8                        JSR       $25C8
 207C 0000562A                    MOVE.L    #$0000562A,A0
 4EB8 1288                        JSR       $1288
 4EB8 181C                        JSR       $181C
 4EB8 25C8                        JSR       $25C8
 207C 0000562B                    MOVE.L    #$0000562B,A0
 4EB8 1288                        JSR       $1288
 4EB8 181C                        JSR       $181C
 4EB8 25C8                        JSR       $25C8
 207C 0000562C                    MOVE.L    #$0000562C,A0
 4EB8 1288                        JSR       $1288
 4EB8 181C                        JSR       $181C
 4EB8 25C8                        JSR       $25C8
 207C 0000562D                    MOVE.L    #$0000562D,A0
 4EB8 1288                        JSR       $1288
 4EB8 181C                        JSR       $181C
 4EB8 25C8                        JSR       $25C8
 207C 0000562E                    MOVE.L    #$0000562E,A0
 4EB8 1288                        JSR       $1288
 4EB8 181C                        JSR       $181C
 4EB8 25C8                        JSR       $25C8
 207C 0000562F                    MOVE.L    #$0000562F,A0
 4EB8 1288                        JSR       $1288
 4EB8 181C                        JSR       $181C
 4EB8 25C8                        JSR       $25C8
 207C 00005630                    MOVE.L    #$00005630,A0
 4EB8 1288                        JSR       $1288
 4EB8 181C                        JSR       $181C
 4EB8 25C8                        JSR       $25C8
 207C 00005631                    MOVE.L    #$00005631,A0
 4EB8 1288                        JSR       $1288
 4EB8 181C                        JSR       $181C
 4280                             CLR.L     D0
 3039 00FF004C                    MOVE.W    $00FF004C,D0
 4EB8 1742                        JSR       $1742
 207C 0000563D                    MOVE.L    #$0000563D,A0
 4EB8 1288                        JSR       $1288
 4EB8 181C                        JSR       $181C
 4EB8 25C8                        JSR       $25C8
 207C 0000563E                    MOVE.L    #$0000563E,A0
 4EB8 1288                        JSR       $1288
 4EB8 181C                        JSR       $181C
 4280                             CLR.L     D0
 3039 00FF004E                    MOVE.W    $00FF004E,D0
 4EB8 1742                        JSR       $1742
 207C 0000564A                    MOVE.L    #$0000564A,A0
 4EB8 1288                        JSR       $1288
 4EB8 181C                        JSR       $181C
 4EB8 25C8                        JSR       $25C8
 207C 0000564B                    MOVE.L    #$0000564B,A0
 4EB8 1288                        JSR       $1288
 4EB8 181C                        JSR       $181C
 4EB8 25C8                        JSR       $25C8
 207C 0000564C                    MOVE.L    #$0000564C,A0
 4EB8 1288                        JSR       $1288
 4EB8 181C                        JSR       $181C
 4280                             CLR.L     D0
 3039 00FF0050                    MOVE.W    $00FF0050,D0
 4EB8 1742                        JSR       $1742
 207C 00005659                    MOVE.L    #$00005659,A0
 4EB8 1288                        JSR       $1288
 4EB8 181C                        JSR       $181C
 4EB8 25C8                        JSR       $25C8
 207C 0000565A                    MOVE.L    #$0000565A,A0
 4EB8 1288                        JSR       $1288
 4EB8 181C                        JSR       $181C
 4EB8 25C8                        JSR       $25C8
 207C 0000565B                    MOVE.L    #$0000565B,A0
 4EB8 1288                        JSR       $1288
 4EB8 181C                        JSR       $181C
 4EB8 25C8                        JSR       $25C8
 207C 0000566E                    MOVE.L    #$0000566E,A0
 4EB8 1288                        JSR       $1288
 4EB8 181C                        JSR       $181C
 4EB8 25C8                        JSR       $25C8
 207C 0000566F                    MOVE.L    #$0000566F,A0
 4EB8 1288                        JSR       $1288
 4EB8 181C                        JSR       $181C
 4EB8 25C8                        JSR       $25C8
 207C 00005689                    MOVE.L    #$00005689,A0
 4EB8 1288                        JSR       $1288
 4EB8 181C                        JSR       $181C
 4EB8 25C8                        JSR       $25C8
 207C 0000568A                    MOVE.L    #$0000568A,A0
 4EB8 1288                        JSR       $1288
 4EB8 181C                        JSR       $181C
 4EB8 25C8                        JSR       $25C8
 207C 0000569F                    MOVE.L    #$0000569F,A0
 4EB8 1288                        JSR       $1288
 4EB8 181C                        JSR       $181C
 4EB8 25C8                        JSR       $25C8
 207C 000056A0                    MOVE.L    #$000056A0,A0
 4EB8 1288                        JSR       $1288
 4EB8 181C                        JSR       $181C
 4EB8 25C8                        JSR       $25C8
 207C 000056BF                    MOVE.L    #$000056BF,A0
 4EB8 1288                        JSR       $1288
 4EB8 181C                        JSR       $181C
 4EB8 25C8                        JSR       $25C8
 207C 000056C0                    MOVE.L    #$000056C0,A0
 4EB8 1288                        JSR       $1288
 4EB8 181C                        JSR       $181C
 4EB8 25C8                        JSR       $25C8
 3439 00FF0054                    MOVE.W    $00FF0054,D2
 0802 0002                        BTST      #$02,D2
 56C2                             Invalid
 0282 00000001                    AND.L     #$00000001,D2
 4280                             CLR.L     D0
 3002                             MOVE.W    D2,D0
 4A00                             TST.B     D0
 6700 0340                        BEQ       $00004D60(pc)
 4280                             CLR.L     D0
 3039 00FF004E                    MOVE.W    $00FF004E,D0
 2200                             MOVE.L    D0,D1
 203C 00000018                    MOVE.L    #$00000018,D0
 B041                             CMP.W     D1,D0
 55C0                             Invalid
 0280 00000001                    AND.L     #$00000001,D0
 4A00                             TST.B     D0
 6700 0320                        BEQ       $00004D60(pc)
 4280                             CLR.L     D0
 3039 00FF0052                    MOVE.W    $00FF0052,D0
 2200                             MOVE.L    D0,D1
 203C 00000000                    MOVE.L    #$00000000,D0
 B041                             CMP.W     D1,D0
 57C0                             Invalid
 0280 00000001                    AND.L     #$00000001,D0
 4A00                             TST.B     D0
 6700 0300                        BEQ       $00004D60(pc)
 4280                             CLR.L     D0
 3039 00FF004E                    MOVE.W    $00FF004E,D0
 0440 0019                        SUB.W     #$0019,D0
 33C0 00FF004E                    MOVE.W    D0,$00FF004E
 207C 000056C1                    MOVE.L    #$000056C1,A0
 4EB8 1288                        JSR       $1288
 4EB8 181C                        JSR       $181C
 4EB8 25C8                        JSR       $25C8
 203C 00000032                    MOVE.L    #$00000032,D0
 4EB8 1064                        JSR       $1064
 207C 000056D5                    MOVE.L    #$000056D5,A0
 4EB8 1288                        JSR       $1288
 4EB8 181C                        JSR       $181C
 4EB8 25C8                        JSR       $25C8
 4280                             CLR.L     D0
 3039 00FF004C                    MOVE.W    $00FF004C,D0
 0640 012C                        ADD.W     #$012C,D0
 33C0 00FF004C                    MOVE.W    D0,$00FF004C
 203C 00000032                    MOVE.L    #$00000032,D0
 4EB8 1064                        JSR       $1064
 207C 000056E9                    MOVE.L    #$000056E9,A0
 4EB8 1288                        JSR       $1288
 4EB8 181C                        JSR       $181C
 4EB8 25C8                        JSR       $25C8
 203C 00000032                    MOVE.L    #$00000032,D0
 4EB8 1064                        JSR       $1064
 4280                             CLR.L     D0
 3039 00FF004C                    MOVE.W    $00FF004C,D0
 0440 0078                        SUB.W     #$0078,D0
 33C0 00FF004C                    MOVE.W    D0,$00FF004C
 207C 000056F9                    MOVE.L    #$000056F9,A0
 4EB8 1288                        JSR       $1288
 4EB8 181C                        JSR       $181C
 4EB8 25C8                        JSR       $25C8
 203C 00000064                    MOVE.L    #$00000064,D0
 4EB8 1064                        JSR       $1064
 207C 0000570C                    MOVE.L    #$0000570C,A0
 4EB8 1288                        JSR       $1288
 4EB8 181C                        JSR       $181C
 4EB8 25C8                        JSR       $25C8
 207C 0000570D                    MOVE.L    #$0000570D,A0
 4EB8 1288                        JSR       $1288
 4EB8 181C                        JSR       $181C
 4EB8 25C8                        JSR       $25C8
 207C 0000570E                    MOVE.L    #$0000570E,A0
 4EB8 1288                        JSR       $1288
 4EB8 181C                        JSR       $181C
 4EB8 25C8                        JSR       $25C8
 207C 0000570F                    MOVE.L    #$0000570F,A0
 4EB8 1288                        JSR       $1288
 4EB8 181C                        JSR       $181C
 4EB8 25C8                        JSR       $25C8
 207C 00005710                    MOVE.L    #$00005710,A0
 4EB8 1288                        JSR       $1288
 4EB8 181C                        JSR       $181C
 4EB8 25C8                        JSR       $25C8
 207C 00005711                    MOVE.L    #$00005711,A0
 4EB8 1288                        JSR       $1288
 4EB8 181C                        JSR       $181C
 4EB8 25C8                        JSR       $25C8
 207C 00005712                    MOVE.L    #$00005712,A0
 4EB8 1288                        JSR       $1288
 4EB8 181C                        JSR       $181C
 4EB8 25C8                        JSR       $25C8
 207C 00005713                    MOVE.L    #$00005713,A0
 4EB8 1288                        JSR       $1288
 4EB8 181C                        JSR       $181C
 4EB8 25C8                        JSR       $25C8
 207C 00005714                    MOVE.L    #$00005714,A0
 4EB8 1288                        JSR       $1288
 4EB8 181C                        JSR       $181C
 4EB8 25C8                        JSR       $25C8
 207C 00005715                    MOVE.L    #$00005715,A0
 4EB8 1288                        JSR       $1288
 4EB8 181C                        JSR       $181C
 4EB8 25C8                        JSR       $25C8
 207C 00005716                    MOVE.L    #$00005716,A0
 4EB8 1288                        JSR       $1288
 4EB8 181C                        JSR       $181C
 4EB8 25C8                        JSR       $25C8
 207C 00005717                    MOVE.L    #$00005717,A0
 4EB8 1288                        JSR       $1288
 4EB8 181C                        JSR       $181C
 4EB8 25C8                        JSR       $25C8
 207C 00005718                    MOVE.L    #$00005718,A0
 4EB8 1288                        JSR       $1288
 4EB8 181C                        JSR       $181C
 4EB8 25C8                        JSR       $25C8
 207C 00005719                    MOVE.L    #$00005719,A0
 4EB8 1288                        JSR       $1288
 4EB8 181C                        JSR       $181C
 4EB8 25C8                        JSR       $25C8
 207C 0000571A                    MOVE.L    #$0000571A,A0
 4EB8 1288                        JSR       $1288
 4EB8 181C                        JSR       $181C
 4EB8 25C8                        JSR       $25C8
 207C 0000571B                    MOVE.L    #$0000571B,A0
 4EB8 1288                        JSR       $1288
 4EB8 181C                        JSR       $181C
 4280                             CLR.L     D0
 3039 00FF004C                    MOVE.W    $00FF004C,D0
 4EB8 1742                        JSR       $1742
 207C 00005727                    MOVE.L    #$00005727,A0
 4EB8 1288                        JSR       $1288
 4EB8 181C                        JSR       $181C
 4EB8 25C8                        JSR       $25C8
 207C 00005728                    MOVE.L    #$00005728,A0
 4EB8 1288                        JSR       $1288
 4EB8 181C                        JSR       $181C
 4280                             CLR.L     D0
 3039 00FF004E                    MOVE.W    $00FF004E,D0
 4EB8 1742                        JSR       $1742
 207C 00005734                    MOVE.L    #$00005734,A0
 4EB8 1288                        JSR       $1288
 4EB8 181C                        JSR       $181C
 4EB8 25C8                        JSR       $25C8
 207C 00005735                    MOVE.L    #$00005735,A0
 4EB8 1288                        JSR       $1288
 4EB8 181C                        JSR       $181C
 4EB8 25C8                        JSR       $25C8
 207C 00005736                    MOVE.L    #$00005736,A0
 4EB8 1288                        JSR       $1288
 4EB8 181C                        JSR       $181C
 4280                             CLR.L     D0
 3039 00FF0050                    MOVE.W    $00FF0050,D0
 4EB8 1742                        JSR       $1742
 207C 00005743                    MOVE.L    #$00005743,A0
 4EB8 1288                        JSR       $1288
 4EB8 181C                        JSR       $181C
 4EB8 25C8                        JSR       $25C8
 207C 00005744                    MOVE.L    #$00005744,A0
 4EB8 1288                        JSR       $1288
 4EB8 181C                        JSR       $181C
 4EB8 25C8                        JSR       $25C8
 207C 00005745                    MOVE.L    #$00005745,A0
 4EB8 1288                        JSR       $1288
 4EB8 181C                        JSR       $181C
 4EB8 25C8                        JSR       $25C8
 207C 00005758                    MOVE.L    #$00005758,A0
 4EB8 1288                        JSR       $1288
 4EB8 181C                        JSR       $181C
 4EB8 25C8                        JSR       $25C8
 207C 00005759                    MOVE.L    #$00005759,A0
 4EB8 1288                        JSR       $1288
 4EB8 181C                        JSR       $181C
 4EB8 25C8                        JSR       $25C8
 207C 00005773                    MOVE.L    #$00005773,A0
 4EB8 1288                        JSR       $1288
 4EB8 181C                        JSR       $181C
 4EB8 25C8                        JSR       $25C8
 207C 00005774                    MOVE.L    #$00005774,A0
 4EB8 1288                        JSR       $1288
 4EB8 181C                        JSR       $181C
 4EB8 25C8                        JSR       $25C8
 207C 00005789                    MOVE.L    #$00005789,A0
 4EB8 1288                        JSR       $1288
 4EB8 181C                        JSR       $181C
 4EB8 25C8                        JSR       $25C8
 207C 0000578A                    MOVE.L    #$0000578A,A0
 4EB8 1288                        JSR       $1288
 4EB8 181C                        JSR       $181C
 4EB8 25C8                        JSR       $25C8
 207C 000057A9                    MOVE.L    #$000057A9,A0
 4EB8 1288                        JSR       $1288
 4EB8 181C                        JSR       $181C
 4EB8 25C8                        JSR       $25C8
 207C 000057AA                    MOVE.L    #$000057AA,A0
 4EB8 1288                        JSR       $1288
 4EB8 181C                        JSR       $181C
 4EB8 25C8                        JSR       $25C8
 3439 00FF0054                    MOVE.W    $00FF0054,D2
 0802 0003                        BTST      #$03,D2
 56C2                             Invalid
 0282 00000001                    AND.L     #$00000001,D2
 4280                             CLR.L     D0
 3002                             MOVE.W    D2,D0
 4A00                             TST.B     D0
 6700 02A0                        BEQ       $0000501A(pc)
 203C 00000001                    MOVE.L    #$00000001,D0
 33C0 00FF0052                    MOVE.W    D0,$00FF0052
 207C 000057AB                    MOVE.L    #$000057AB,A0
 4EB8 1288                        JSR       $1288
 4EB8 181C                        JSR       $181C
 4EB8 25C8                        JSR       $25C8
 203C 000000C8                    MOVE.L    #$000000C8,D0
 4EB8 1064                        JSR       $1064
 203C 000003E8                    MOVE.L    #$000003E8,D0
 33C0 00FF004C                    MOVE.W    D0,$00FF004C
 203C 00000064                    MOVE.L    #$00000064,D0
 33C0 00FF004E                    MOVE.W    D0,$00FF004E
 203C 000003E8                    MOVE.L    #$000003E8,D0
 33C0 00FF0050                    MOVE.W    D0,$00FF0050
 203C 00000000                    MOVE.L    #$00000000,D0
 33C0 00FF0052                    MOVE.W    D0,$00FF0052
 207C 000057C3                    MOVE.L    #$000057C3,A0
 4EB8 1288                        JSR       $1288
 4EB8 181C                        JSR       $181C
 4EB8 25C8                        JSR       $25C8
 207C 000057C4                    MOVE.L    #$000057C4,A0
 4EB8 1288                        JSR       $1288
 4EB8 181C                        JSR       $181C
 4EB8 25C8                        JSR       $25C8
 207C 000057C5                    MOVE.L    #$000057C5,A0
 4EB8 1288                        JSR       $1288
 4EB8 181C                        JSR       $181C
 4EB8 25C8                        JSR       $25C8
 207C 000057C6                    MOVE.L    #$000057C6,A0
 4EB8 1288                        JSR       $1288
 4EB8 181C                        JSR       $181C
 4EB8 25C8                        JSR       $25C8
 207C 000057C7                    MOVE.L    #$000057C7,A0
 4EB8 1288                        JSR       $1288
 4EB8 181C                        JSR       $181C
 4EB8 25C8                        JSR       $25C8
 207C 000057C8                    MOVE.L    #$000057C8,A0
 4EB8 1288                        JSR       $1288
 4EB8 181C                        JSR       $181C
 4EB8 25C8                        JSR       $25C8
 207C 000057C9                    MOVE.L    #$000057C9,A0
 4EB8 1288                        JSR       $1288
 4EB8 181C                        JSR       $181C
 4EB8 25C8                        JSR       $25C8
 207C 000057CA                    MOVE.L    #$000057CA,A0
 4EB8 1288                        JSR       $1288
 4EB8 181C                        JSR       $181C
 4EB8 25C8                        JSR       $25C8
 207C 000057CB                    MOVE.L    #$000057CB,A0
 4EB8 1288                        JSR       $1288
 4EB8 181C                        JSR       $181C
 4EB8 25C8                        JSR       $25C8
 207C 000057CC                    MOVE.L    #$000057CC,A0
 4EB8 1288                        JSR       $1288
 4EB8 181C                        JSR       $181C
 4EB8 25C8                        JSR       $25C8
 207C 000057CD                    MOVE.L    #$000057CD,A0
 4EB8 1288                        JSR       $1288
 4EB8 181C                        JSR       $181C
 4EB8 25C8                        JSR       $25C8
 207C 000057CE                    MOVE.L    #$000057CE,A0
 4EB8 1288                        JSR       $1288
 4EB8 181C                        JSR       $181C
 4EB8 25C8                        JSR       $25C8
 207C 000057CF                    MOVE.L    #$000057CF,A0
 4EB8 1288                        JSR       $1288
 4EB8 181C                        JSR       $181C
 4EB8 25C8                        JSR       $25C8
 207C 000057D0                    MOVE.L    #$000057D0,A0
 4EB8 1288                        JSR       $1288
 4EB8 181C                        JSR       $181C
 4EB8 25C8                        JSR       $25C8
 207C 000057D1                    MOVE.L    #$000057D1,A0
 4EB8 1288                        JSR       $1288
 4EB8 181C                        JSR       $181C
 4EB8 25C8                        JSR       $25C8
 207C 000057D2                    MOVE.L    #$000057D2,A0
 4EB8 1288                        JSR       $1288
 4EB8 181C                        JSR       $181C
 4280                             CLR.L     D0
 3039 00FF004C                    MOVE.W    $00FF004C,D0
 4EB8 1742                        JSR       $1742
 207C 000057DE                    MOVE.L    #$000057DE,A0
 4EB8 1288                        JSR       $1288
 4EB8 181C                        JSR       $181C
 4EB8 25C8                        JSR       $25C8
 207C 000057DF                    MOVE.L    #$000057DF,A0
 4EB8 1288                        JSR       $1288
 4EB8 181C                        JSR       $181C
 4280                             CLR.L     D0
 3039 00FF004E                    MOVE.W    $00FF004E,D0
 4EB8 1742                        JSR       $1742
 207C 000057EB                    MOVE.L    #$000057EB,A0
 4EB8 1288                        JSR       $1288
 4EB8 181C                        JSR       $181C
 4EB8 25C8                        JSR       $25C8
 207C 000057EC                    MOVE.L    #$000057EC,A0
 4EB8 1288                        JSR       $1288
 4EB8 181C                        JSR       $181C
 4EB8 25C8                        JSR       $25C8
 207C 000057ED                    MOVE.L    #$000057ED,A0
 4EB8 1288                        JSR       $1288
 4EB8 181C                        JSR       $181C
 4280                             CLR.L     D0
 3039 00FF0050                    MOVE.W    $00FF0050,D0
 4EB8 1742                        JSR       $1742
 207C 000057FA                    MOVE.L    #$000057FA,A0
 4EB8 1288                        JSR       $1288
 4EB8 181C                        JSR       $181C
 4EB8 25C8                        JSR       $25C8
 207C 000057FB                    MOVE.L    #$000057FB,A0
 4EB8 1288                        JSR       $1288
 4EB8 181C                        JSR       $181C
 4EB8 25C8                        JSR       $25C8
 207C 000057FC                    MOVE.L    #$000057FC,A0
 4EB8 1288                        JSR       $1288
 4EB8 181C                        JSR       $181C
 4EB8 25C8                        JSR       $25C8
 207C 0000580F                    MOVE.L    #$0000580F,A0
 4EB8 1288                        JSR       $1288
 4EB8 181C                        JSR       $181C
 4EB8 25C8                        JSR       $25C8
 207C 00005810                    MOVE.L    #$00005810,A0
 4EB8 1288                        JSR       $1288
 4EB8 181C                        JSR       $181C
 4EB8 25C8                        JSR       $25C8
 207C 0000582A                    MOVE.L    #$0000582A,A0
 4EB8 1288                        JSR       $1288
 4EB8 181C                        JSR       $181C
 4EB8 25C8                        JSR       $25C8
 207C 0000582B                    MOVE.L    #$0000582B,A0
 4EB8 1288                        JSR       $1288
 4EB8 181C                        JSR       $181C
 4EB8 25C8                        JSR       $25C8
 207C 00005840                    MOVE.L    #$00005840,A0
 4EB8 1288                        JSR       $1288
 4EB8 181C                        JSR       $181C
 4EB8 25C8                        JSR       $25C8
 207C 00005841                    MOVE.L    #$00005841,A0
 4EB8 1288                        JSR       $1288
 4EB8 181C                        JSR       $181C
 4EB8 25C8                        JSR       $25C8
 207C 00005860                    MOVE.L    #$00005860,A0
 4EB8 1288                        JSR       $1288
 4EB8 181C                        JSR       $181C
 4EB8 25C8                        JSR       $25C8
 4EF8 3288                        JMP       $3288
 60FE                             BRA       $0000501E
 536F 6E69                        SUBQ.W    #$1,$6E69(A7)
 6320                             BLS       $00005046
 5270 6720                        ADDQ.W    #$1,$67(A0,D0.W)
 436F                             Invalid
 6E73                             BGT       $000050A1
 6F6C                             BLE       $0000509C
 6520                             BCS       $00005052
 3332 5800                        MOVE.W    $58(A2,D0.W),-(A1)
 0000 5076                        OR.B      #$76,D0
 2053                             MOVE.L    (A3),A0
 6F6E                             BLE       $000050AC
 6963                             BVS       $000050A3
 203A 2000                        MOVE.L    $00007042(pc),D0
 0050 4D20                        OR.W      #$4D20,(A0)
 536F 6E69                        SUBQ.W    #$1,$6E69(A7)
 6320                             BLS       $0000506E
 3A20                             MOVE.W    -(A0),D5
 0000 0050                        OR.B      #$50,D0
 7620                             MOVEQ     #$20,D3
 5368 6164                        SUBQ.W    #$1,$6164(A0)
 6F77                             BLE       $000050D3
 203A 2000                        MOVE.L    $0000705E(pc),D0
 0000 0048                        OR.B      #$48,D0
 6175                             BSR       $000050DB
 7420                             MOVEQ     #$20,D2
 2020                             MOVE.L    -(A0),D0
 202D 2041                        MOVE.L    $2041(A5),D0
 7474                             MOVEQ     #$74,D2
 6171                             BSR       $000050E3
 7565                             MOVEQ     #$65,D2
 7200                             MOVEQ     #$00,D1
 0042 6173                        OR.W      #$6173,D2
 2020                             MOVE.L    -(A0),D0
 2020                             MOVE.L    -(A0),D0
 202D 2053                        MOVE.L    $2053(A5),D0
 6163                             BSR       $000050E7
 7269                             MOVEQ     #$69,D1
 6669                             BNE       $000050F1
 6365                             BLS       $000050EF
 204D                             MOVE.L    A5,A0
 5020                             ADDQ.B    #$0,-(A0)
 3735 0000                        MOVE.W    $00(A5,D0.W),-(A3)
 4761                             Invalid
 7563                             MOVEQ     #$63,D2
 6865                             BVC       $000050FD
 2020                             MOVE.L    -(A0),D0
 2D20                             MOVE.L    -(A0),-(A6)
 536F 696E                        SUBQ.W    #$1,$696E(A7)
 204D                             MOVE.L    A5,A0
 5020                             ADDQ.B    #$0,-(A0)
 3235 0000                        MOVE.W    $00(A5,D0.W),D1
 4472 6F69                        NEG.W     $6F(A2,A4.W)
 7465                             MOVEQ     #$65,D2
 2020                             MOVE.L    -(A0),D0
 2D20                             MOVE.L    -(A0),-(A6)
 4162                             Invalid
 616E                             BSR       $00005124
 646F                             BCC       $00005127
 6E6E                             BGT       $00005128
 6572                             BCS       $0000512E
 206C 6520                        MOVE.L    $6520(A4),A0
 636F                             BLS       $00005131
 6D62                             BLT       $00005126
 6174                             BSR       $0000513A
 0000 0053                        OR.B      #$53,D0
 6861                             BVC       $0000512D
 646F                             BCC       $0000513D
 7720                             MOVEQ     #$20,D3
 6761                             BEQ       $00005133
 676E                             BEQ       $00005142
 6520                             BCS       $000050F6
 6C65                             BGE       $0000513D
 2063                             MOVE.L    -(A3),A0
 6F6D                             BLE       $00005149
 6261                             BHI       $0000513F
 7421                             MOVEQ     #$21,D2
 0000 0000                        OR.B      #$00,D0
 0000 0000                        OR.B      #$00,D0
 0000 0000                        OR.B      #$00,D0
 0000 0000                        OR.B      #$00,D0
 5076 2053                        ADDQ.W    #$0,$20(A6,A1.L)
 6F6E                             BLE       $00005164
 6963                             BVS       $0000515B
 203A 2000                        MOVE.L    $000070FA(pc),D0
 0050 4D20                        OR.W      #$4D20,(A0)
 536F 6E69                        SUBQ.W    #$1,$6E69(A7)
 6320                             BLS       $00005126
 3A20                             MOVE.W    -(A0),D5
 0000 0050                        OR.B      #$50,D0
 7620                             MOVEQ     #$20,D3
 5368 6164                        SUBQ.W    #$1,$6164(A0)
 6F77                             BLE       $0000518B
 203A 2000                        MOVE.L    $00007116(pc),D0
 0000 4861                        OR.B      #$61,D0
 7574                             MOVEQ     #$74,D2
 2020                             MOVE.L    -(A0),D0
 2020                             MOVE.L    -(A0),D0
 2D20                             MOVE.L    -(A0),-(A6)
 4174                             Invalid
 7461                             MOVEQ     #$61,D2
 7175                             MOVEQ     #$75,D0
 6572                             BCS       $0000519E
 0000 4261                        OR.B      #$61,D0
 7320                             MOVEQ     #$20,D1
 2020                             MOVE.L    -(A0),D0
 2020                             MOVE.L    -(A0),D0
 2D20                             MOVE.L    -(A0),-(A6)
 5361                             SUBQ.W    #$1,-(A1)
 6372                             BLS       $000051AE
 6966                             BVS       $000051A4
 6963                             BVS       $000051A3
 6520                             BCS       $00005162
 4D50                             Invalid
 2037 3500                        MOVE.L    $35(A7,D0.W),D0
 0047 6175                        OR.W      #$6175,D7
 6368                             BLS       $000051B6
 6520                             BCS       $00005170
 202D 2053                        MOVE.L    $2053(A5),D0
 6F69                             BLE       $000051BF
 6E20                             BGT       $00005178
 4D50                             Invalid
 2032 3500                        MOVE.L    $35(A2,D0.W),D0
 0044 726F                        OR.W      #$726F,D4
 6974                             BVS       $000051D8
 6520                             BCS       $00005186
 202D 2041                        MOVE.L    $2041(A5),D0
 6261                             BHI       $000051CD
 6E64                             BGT       $000051D2
 6F6E                             BLE       $000051DE
 6E65                             BGT       $000051D7
 7220                             MOVEQ     #$20,D1
 6C65                             BGE       $000051DB
 2063                             MOVE.L    -(A3),A0
 6F6D                             BLE       $000051E7
 6261                             BHI       $000051DD
 7400                             MOVEQ     #$00,D2
 0053 6861                        OR.W      #$6861,(A3)
 646F                             BCC       $000051F3
 7720                             MOVEQ     #$20,D3
 6761                             BEQ       $000051E9
 676E                             BEQ       $000051F8
 6520                             BCS       $000051AC
 6C65                             BGE       $000051F3
 2063                             MOVE.L    -(A3),A0
 6F6D                             BLE       $000051FF
 6261                             BHI       $000051F5
 7421                             MOVEQ     #$21,D2
 0000 0000                        OR.B      #$00,D0
 0000 0000                        OR.B      #$00,D0
 0000 0000                        OR.B      #$00,D0
 0000 0000                        OR.B      #$00,D0
 5076 2053                        ADDQ.W    #$0,$20(A6,A1.L)
 6F6E                             BLE       $0000521A
 6963                             BVS       $00005211
 203A 2000                        MOVE.L    $000071B0(pc),D0
 0050 4D20                        OR.W      #$4D20,(A0)
 536F 6E69                        SUBQ.W    #$1,$6E69(A7)
 6320                             BLS       $000051DC
 3A20                             MOVE.W    -(A0),D5
 0000 0050                        OR.B      #$50,D0
 7620                             MOVEQ     #$20,D3
 5368 6164                        SUBQ.W    #$1,$6164(A0)
 6F77                             BLE       $00005241
 203A 2000                        MOVE.L    $000071CC(pc),D0
 0000 4861                        OR.B      #$61,D0
 7574                             MOVEQ     #$74,D2
 2020                             MOVE.L    -(A0),D0
 2020                             MOVE.L    -(A0),D0
 2D20                             MOVE.L    -(A0),-(A6)
 4174                             Invalid
 7461                             MOVEQ     #$61,D2
 7175                             MOVEQ     #$75,D0
 6572                             BCS       $00005254
 0000 4261                        OR.B      #$61,D0
 7320                             MOVEQ     #$20,D1
 2020                             MOVE.L    -(A0),D0
 2020                             MOVE.L    -(A0),D0
 2D20                             MOVE.L    -(A0),-(A6)
 5361                             SUBQ.W    #$1,-(A1)
 6372                             BLS       $00005264
 6966                             BVS       $0000525A
 6963                             BVS       $00005259
 6520                             BCS       $00005218
 4D50                             Invalid
 2037 3500                        MOVE.L    $35(A7,D0.W),D0
 0047 6175                        OR.W      #$6175,D7
 6368                             BLS       $0000526C
 6520                             BCS       $00005226
 202D 2053                        MOVE.L    $2053(A5),D0
 6F69                             BLE       $00005275
 6E20                             BGT       $0000522E
 4D50                             Invalid
 2032 3500                        MOVE.L    $35(A2,D0.W),D0
 0044 726F                        OR.W      #$726F,D4
 6974                             BVS       $0000528E
 6520                             BCS       $0000523C
 202D 2041                        MOVE.L    $2041(A5),D0
 6261                             BHI       $00005283
 6E64                             BGT       $00005288
 6F6E                             BLE       $00005294
 6E65                             BGT       $0000528D
 7220                             MOVEQ     #$20,D1
 6C65                             BGE       $00005291
 2063                             MOVE.L    -(A3),A0
 6F6D                             BLE       $0000529D
 6261                             BHI       $00005293
 7400                             MOVEQ     #$00,D2
 0053 6F6E                        OR.W      #$6F6E,(A3)
 6963                             BVS       $0000529D
 2067                             MOVE.L    -(A7),A0
 6167                             BSR       $000052A5
 6E65                             BGT       $000052A5
 206C 6520                        MOVE.L    $6520(A4),A0
 636F                             BLS       $000052B5
 6D62                             BLT       $000052AA
 6174                             BSR       $000052BE
 2100                             MOVE.L    D0,-(A0)
 0000 0000                        OR.B      #$00,D0
 0000 0000                        OR.B      #$00,D0
 0000 0000                        OR.B      #$00,D0
 0000 0050                        OR.B      #$50,D0
 7620                             MOVEQ     #$20,D3
 536F 6E69                        SUBQ.W    #$1,$6E69(A7)
 6320                             BLS       $00005284
 3A20                             MOVE.W    -(A0),D5
 0000 504D                        OR.B      #$4D,D0
 2053                             MOVE.L    (A3),A0
 6F6E                             BLE       $000052DC
 6963                             BVS       $000052D3
 203A 2000                        MOVE.L    $00007272(pc),D0
 0000 5076                        OR.B      #$76,D0
 2053                             MOVE.L    (A3),A0
 6861                             BVC       $000052DD
 646F                             BCC       $000052ED
 7720                             MOVEQ     #$20,D3
 3A20                             MOVE.W    -(A0),D5
 0000 0048                        OR.B      #$48,D0
 6175                             BSR       $000052FD
 7420                             MOVEQ     #$20,D2
 2020                             MOVE.L    -(A0),D0
 202D 2041                        MOVE.L    $2041(A5),D0
 7474                             MOVEQ     #$74,D2
 6171                             BSR       $00005305
 7565                             MOVEQ     #$65,D2
 7200                             MOVEQ     #$00,D1
 0042 6173                        OR.W      #$6173,D2
 2020                             MOVE.L    -(A0),D0
 2020                             MOVE.L    -(A0),D0
 202D 2053                        MOVE.L    $2053(A5),D0
 6163                             BSR       $00005309
 7269                             MOVEQ     #$69,D1
 6669                             BNE       $00005313
 6365                             BLS       $00005311
 204D                             MOVE.L    A5,A0
 5020                             ADDQ.B    #$0,-(A0)
 3735 0000                        MOVE.W    $00(A5,D0.W),-(A3)
 4761                             Invalid
 7563                             MOVEQ     #$63,D2
 6865                             BVC       $0000531F
 2020                             MOVE.L    -(A0),D0
 2D20                             MOVE.L    -(A0),-(A6)
 536F 696E                        SUBQ.W    #$1,$696E(A7)
 204D                             MOVE.L    A5,A0
 5020                             ADDQ.B    #$0,-(A0)
 3235 0000                        MOVE.W    $00(A5,D0.W),D1
 4472 6F69                        NEG.W     $6F(A2,A4.W)
 7465                             MOVEQ     #$65,D2
 2020                             MOVE.L    -(A0),D0
 2D20                             MOVE.L    -(A0),-(A6)
 4162                             Invalid
 616E                             BSR       $00005346
 646F                             BCC       $00005349
 6E6E                             BGT       $0000534A
 6572                             BCS       $00005350
 206C 6520                        MOVE.L    $6520(A4),A0
 636F                             BLS       $00005353
 6D62                             BLT       $00005348
 6174                             BSR       $0000535C
 0000 536F                        OR.B      #$6F,D0
 6E69                             BGT       $00005357
 6320                             BLS       $00005310
 6761                             BEQ       $00005353
 676E                             BEQ       $00005362
 6520                             BCS       $00005316
 6C65                             BGE       $0000535D
 2063                             MOVE.L    -(A3),A0
 6F6D                             BLE       $00005369
 6261                             BHI       $0000535F
 7421                             MOVEQ     #$21,D2
 0000 0000                        OR.B      #$00,D0
 0000 0000                        OR.B      #$00,D0
 0000 0000                        OR.B      #$00,D0
 0000 0000                        OR.B      #$00,D0
 5076 2053                        ADDQ.W    #$0,$20(A6,A1.L)
 6F6E                             BLE       $00005384
 6963                             BVS       $0000537B
 203A 2000                        MOVE.L    $0000731A(pc),D0
 0050 4D20                        OR.W      #$4D20,(A0)
 536F 6E69                        SUBQ.W    #$1,$6E69(A7)
 6320                             BLS       $00005346
 3A20                             MOVE.W    -(A0),D5
 0000 0050                        OR.B      #$50,D0
 7620                             MOVEQ     #$20,D3
 5368 6164                        SUBQ.W    #$1,$6164(A0)
 6F77                             BLE       $000053AB
 203A 2000                        MOVE.L    $00007336(pc),D0
 0000 4861                        OR.B      #$61,D0
 7574                             MOVEQ     #$74,D2
 2020                             MOVE.L    -(A0),D0
 2020                             MOVE.L    -(A0),D0
 2D20                             MOVE.L    -(A0),-(A6)
 4174                             Invalid
 7461                             MOVEQ     #$61,D2
 7175                             MOVEQ     #$75,D0
 6572                             BCS       $000053BE
 0000 4261                        OR.B      #$61,D0
 7320                             MOVEQ     #$20,D1
 2020                             MOVE.L    -(A0),D0
 2020                             MOVE.L    -(A0),D0
 2D20                             MOVE.L    -(A0),-(A6)
 5361                             SUBQ.W    #$1,-(A1)
 6372                             BLS       $000053CE
 6966                             BVS       $000053C4
 6963                             BVS       $000053C3
 6520                             BCS       $00005382
 4D50                             Invalid
 2037 3500                        MOVE.L    $35(A7,D0.W),D0
 0047 6175                        OR.W      #$6175,D7
 6368                             BLS       $000053D6
 6520                             BCS       $00005390
 202D 2053                        MOVE.L    $2053(A5),D0
 6F69                             BLE       $000053DF
 6E20                             BGT       $00005398
 4D50                             Invalid
 2032 3500                        MOVE.L    $35(A2,D0.W),D0
 0044 726F                        OR.W      #$726F,D4
 6974                             BVS       $000053F8
 6520                             BCS       $000053A6
 202D 2041                        MOVE.L    $2041(A5),D0
 6261                             BHI       $000053ED
 6E64                             BGT       $000053F2
 6F6E                             BLE       $000053FE
 6E65                             BGT       $000053F7
 7220                             MOVEQ     #$20,D1
 6C65                             BGE       $000053FB
 2063                             MOVE.L    -(A3),A0
 6F6D                             BLE       $00005407
 6261                             BHI       $000053FD
 7400                             MOVEQ     #$00,D2
 0045 6761                        OR.W      #$6761,D5
 6C69                             BGE       $0000540D
 74E9                             MOVEQ     #$E9,D2
 2100                             MOVE.L    D0,-(A0)
 0000 0000                        OR.B      #$00,D0
 0000 0000                        OR.B      #$00,D0
 0000 0000                        OR.B      #$00,D0
 0000 0050                        OR.B      #$50,D0
 7620                             MOVEQ     #$20,D3
 536F 6E69                        SUBQ.W    #$1,$6E69(A7)
 6320                             BLS       $000053E0
 3A20                             MOVE.W    -(A0),D5
 0000 504D                        OR.B      #$4D,D0
 2053                             MOVE.L    (A3),A0
 6F6E                             BLE       $00005438
 6963                             BVS       $0000542F
 203A 2000                        MOVE.L    $000073CE(pc),D0
 0000 5076                        OR.B      #$76,D0
 2053                             MOVE.L    (A3),A0
 6861                             BVC       $00005439
 646F                             BCC       $00005449
 7720                             MOVEQ     #$20,D3
 3A20                             MOVE.W    -(A0),D5
 0000 0048                        OR.B      #$48,D0
 6175                             BSR       $00005459
 7420                             MOVEQ     #$20,D2
 2020                             MOVE.L    -(A0),D0
 202D 2041                        MOVE.L    $2041(A5),D0
 7474                             MOVEQ     #$74,D2
 6171                             BSR       $00005461
 7565                             MOVEQ     #$65,D2
 7200                             MOVEQ     #$00,D1
 0042 6173                        OR.W      #$6173,D2
 2020                             MOVE.L    -(A0),D0
 2020                             MOVE.L    -(A0),D0
 202D 2053                        MOVE.L    $2053(A5),D0
 6163                             BSR       $00005465
 7269                             MOVEQ     #$69,D1
 6669                             BNE       $0000546F
 6365                             BLS       $0000546D
 204D                             MOVE.L    A5,A0
 5020                             ADDQ.B    #$0,-(A0)
 3735 0000                        MOVE.W    $00(A5,D0.W),-(A3)
 4761                             Invalid
 7563                             MOVEQ     #$63,D2
 6865                             BVC       $0000547B
 2020                             MOVE.L    -(A0),D0
 2D20                             MOVE.L    -(A0),-(A6)
 536F 696E                        SUBQ.W    #$1,$696E(A7)
 204D                             MOVE.L    A5,A0
 5020                             ADDQ.B    #$0,-(A0)
 3235 0000                        MOVE.W    $00(A5,D0.W),D1
 4472 6F69                        NEG.W     $6F(A2,A4.W)
 7465                             MOVEQ     #$65,D2
 2020                             MOVE.L    -(A0),D0
 2D20                             MOVE.L    -(A0),-(A6)
 4162                             Invalid
 616E                             BSR       $000054A2
 646F                             BCC       $000054A5
 6E6E                             BGT       $000054A6
 6572                             BCS       $000054AC
 206C 6520                        MOVE.L    $6520(A4),A0
 636F                             BLS       $000054AF
 6D62                             BLT       $000054A4
 6174                             BSR       $000054B8
 0000 4567                        OR.B      #$67,D0
 616C                             BSR       $000054B6
 6974                             BVS       $000054C0
 E921                             ASL.B     D4,D1
 0000 0000                        OR.B      #$00,D0
 0000 0000                        OR.B      #$00,D0
 0000 0000                        OR.B      #$00,D0
 0000 0000                        OR.B      #$00,D0
 5076 2053                        ADDQ.W    #$0,$20(A6,A1.L)
 6F6E                             BLE       $000054D2
 6963                             BVS       $000054C9
 203A 2000                        MOVE.L    $00007468(pc),D0
 0050 4D20                        OR.W      #$4D20,(A0)
 536F 6E69                        SUBQ.W    #$1,$6E69(A7)
 6320                             BLS       $00005494
 3A20                             MOVE.W    -(A0),D5
 0000 0050                        OR.B      #$50,D0
 7620                             MOVEQ     #$20,D3
 5368 6164                        SUBQ.W    #$1,$6164(A0)
 6F77                             BLE       $000054F9
 203A 2000                        MOVE.L    $00007484(pc),D0
 0000 4861                        OR.B      #$61,D0
 7574                             MOVEQ     #$74,D2
 2020                             MOVE.L    -(A0),D0
 2020                             MOVE.L    -(A0),D0
 2D20                             MOVE.L    -(A0),-(A6)
 4174                             Invalid
 7461                             MOVEQ     #$61,D2
 7175                             MOVEQ     #$75,D0
 6572                             BCS       $0000550C
 0000 4261                        OR.B      #$61,D0
 7320                             MOVEQ     #$20,D1
 2020                             MOVE.L    -(A0),D0
 2020                             MOVE.L    -(A0),D0
 2D20                             MOVE.L    -(A0),-(A6)
 5361                             SUBQ.W    #$1,-(A1)
 6372                             BLS       $0000551C
 6966                             BVS       $00005512
 6963                             BVS       $00005511
 6520                             BCS       $000054D0
 4D50                             Invalid
 2037 3500                        MOVE.L    $35(A7,D0.W),D0
 0047 6175                        OR.W      #$6175,D7
 6368                             BLS       $00005524
 6520                             BCS       $000054DE
 202D 2053                        MOVE.L    $2053(A5),D0
 6F69                             BLE       $0000552D
 6E20                             BGT       $000054E6
 4D50                             Invalid
 2032 3500                        MOVE.L    $35(A2,D0.W),D0
 0044 726F                        OR.W      #$726F,D4
 6974                             BVS       $00005546
 6520                             BCS       $000054F4
 202D 2041                        MOVE.L    $2041(A5),D0
 6261                             BHI       $0000553B
 6E64                             BGT       $00005540
 6F6E                             BLE       $0000554C
 6E65                             BGT       $00005545
 7220                             MOVEQ     #$20,D1
 6C65                             BGE       $00005549
 2063                             MOVE.L    -(A3),A0
 6F6D                             BLE       $00005555
 6261                             BHI       $0000554B
 7400                             MOVEQ     #$00,D2
 0053 6F6E                        OR.W      #$6F6E,(A3)
 6963                             BVS       $00005555
 2041                             MOVE.L    D1,A0
 7474                             MOVEQ     #$74,D2
 6171                             BSR       $00005569
 7565                             MOVEQ     #$65,D2
 2100                             MOVE.L    D0,-(A0)
 5368 6164                        SUBQ.W    #$1,$6164(A0)
 6F77                             BLE       $00005579
 2070 6572                        MOVE.L    $65(A0,D1.L),A0
 6420                             BCC       $00005528
 3130 3020                        MOVE.W    $30(A0,D0.W),-(A0)
 7076                             MOVEQ     #$76,D0
 2100                             MOVE.L    D0,-(A0)
 5368 6164                        SUBQ.W    #$1,$6164(A0)
 6F77                             BLE       $0000558D
 2041                             MOVE.L    D1,A0
 7474                             MOVEQ     #$74,D2
 6171                             BSR       $0000558D
 7565                             MOVEQ     #$65,D2
 2100                             MOVE.L    D0,-(A0)
 536F 6E69                        SUBQ.W    #$1,$6E69(A7)
 6320                             BLS       $00005546
 7065                             MOVEQ     #$65,D0
 7264                             MOVEQ     #$64,D1
 2031 3230                        MOVE.L    $32(A1,D0.L),D0
 2070 7621                        MOVE.L    $76(A0,A0.W),A0
 0000 0000                        OR.B      #$00,D0
 0000 0000                        OR.B      #$00,D0
 0000 0000                        OR.B      #$00,D0
 0000 0000                        OR.B      #$00,D0
 5076 2053                        ADDQ.W    #$0,$20(A6,A1.L)
 6F6E                             BLE       $000055B6
 6963                             BVS       $000055AD
 203A 2000                        MOVE.L    $0000754C(pc),D0
 0050 4D20                        OR.W      #$4D20,(A0)
 536F 6E69                        SUBQ.W    #$1,$6E69(A7)
 6320                             BLS       $00005578
 3A20                             MOVE.W    -(A0),D5
 0000 0050                        OR.B      #$50,D0
 7620                             MOVEQ     #$20,D3
 5368 6164                        SUBQ.W    #$1,$6164(A0)
 6F77                             BLE       $000055DD
 203A 2000                        MOVE.L    $00007568(pc),D0
 0000 4861                        OR.B      #$61,D0
 7574                             MOVEQ     #$74,D2
 2020                             MOVE.L    -(A0),D0
 2020                             MOVE.L    -(A0),D0
 2D20                             MOVE.L    -(A0),-(A6)
 4174                             Invalid
 7461                             MOVEQ     #$61,D2
 7175                             MOVEQ     #$75,D0
 6572                             BCS       $000055F0
 0000 4261                        OR.B      #$61,D0
 7320                             MOVEQ     #$20,D1
 2020                             MOVE.L    -(A0),D0
 2020                             MOVE.L    -(A0),D0
 2D20                             MOVE.L    -(A0),-(A6)
 5361                             SUBQ.W    #$1,-(A1)
 6372                             BLS       $00005600
 6966                             BVS       $000055F6
 6963                             BVS       $000055F5
 6520                             BCS       $000055B4
 4D50                             Invalid
 2037 3500                        MOVE.L    $35(A7,D0.W),D0
 0047 6175                        OR.W      #$6175,D7
 6368                             BLS       $00005608
 6520                             BCS       $000055C2
 202D 2053                        MOVE.L    $2053(A5),D0
 6F69                             BLE       $00005611
 6E20                             BGT       $000055CA
 4D50                             Invalid
 2032 3500                        MOVE.L    $35(A2,D0.W),D0
 0044 726F                        OR.W      #$726F,D4
 6974                             BVS       $0000562A
 6520                             BCS       $000055D8
 202D 2041                        MOVE.L    $2041(A5),D0
 6261                             BHI       $0000561F
 6E64                             BGT       $00005624
 6F6E                             BLE       $00005630
 6E65                             BGT       $00005629
 7220                             MOVEQ     #$20,D1
 6C65                             BGE       $0000562D
 2063                             MOVE.L    -(A3),A0
 6F6D                             BLE       $00005639
 6261                             BHI       $0000562F
 7400                             MOVEQ     #$00,D2
 0000 536F                        OR.B      #$6F,D0
 6E69                             BGT       $0000563F
 6320                             BLS       $000055F8
 7574                             MOVEQ     #$74,D2
 696C                             BVS       $00005648
 6973                             BVS       $00005651
 6520                             BCS       $00005600
 5361                             SUBQ.W    #$1,-(A1)
 6372                             BLS       $00005656
 6966                             BVS       $0000564C
 6963                             BVS       $0000564B
 6521                             BCS       $0000560B
 0053 6861                        OR.W      #$6861,(A3)
 646F                             BCC       $0000565F
 7720                             MOVEQ     #$20,D3
 7065                             MOVEQ     #$65,D0
 7264                             MOVEQ     #$64,D1
 2033 3230                        MOVE.L    $32(A3,D0.L),D0
 2070 7621                        MOVE.L    $76(A0,A0.W),A0
 0053 6861                        OR.W      #$6861,(A3)
 646F                             BCC       $00005673
 7720                             MOVEQ     #$20,D3
 4174                             Invalid
 7461                             MOVEQ     #$61,D2
 7175                             MOVEQ     #$75,D0
 6521                             BCS       $0000562F
 0053 6F6E                        OR.W      #$6F6E,(A3)
 6963                             BVS       $00005677
 2070 6572                        MOVE.L    $65(A0,D1.L),A0
 6420                             BCC       $0000563A
 3132 3020                        MOVE.W    $30(A2,D0.W),-(A0)
 7076                             MOVEQ     #$76,D0
 2100                             MOVE.L    D0,-(A0)
 0000 0000                        OR.B      #$00,D0
 0000 0000                        OR.B      #$00,D0
 0000 0000                        OR.B      #$00,D0
 0000 0050                        OR.B      #$50,D0
 7620                             MOVEQ     #$20,D3
 536F 6E69                        SUBQ.W    #$1,$6E69(A7)
 6320                             BLS       $0000565A
 3A20                             MOVE.W    -(A0),D5
 0000 504D                        OR.B      #$4D,D0
 2053                             MOVE.L    (A3),A0
 6F6E                             BLE       $000056B2
 6963                             BVS       $000056A9
 203A 2000                        MOVE.L    $00007648(pc),D0
 0000 5076                        OR.B      #$76,D0
 2053                             MOVE.L    (A3),A0
 6861                             BVC       $000056B3
 646F                             BCC       $000056C3
 7720                             MOVEQ     #$20,D3
 3A20                             MOVE.W    -(A0),D5
 0000 0048                        OR.B      #$48,D0
 6175                             BSR       $000056D3
 7420                             MOVEQ     #$20,D2
 2020                             MOVE.L    -(A0),D0
 202D 2041                        MOVE.L    $2041(A5),D0
 7474                             MOVEQ     #$74,D2
 6171                             BSR       $000056DB
 7565                             MOVEQ     #$65,D2
 7200                             MOVEQ     #$00,D1
 0042 6173                        OR.W      #$6173,D2
 2020                             MOVE.L    -(A0),D0
 2020                             MOVE.L    -(A0),D0
 202D 2053                        MOVE.L    $2053(A5),D0
 6163                             BSR       $000056DF
 7269                             MOVEQ     #$69,D1
 6669                             BNE       $000056E9
 6365                             BLS       $000056E7
 204D                             MOVE.L    A5,A0
 5020                             ADDQ.B    #$0,-(A0)
 3735 0000                        MOVE.W    $00(A5,D0.W),-(A3)
 4761                             Invalid
 7563                             MOVEQ     #$63,D2
 6865                             BVC       $000056F5
 2020                             MOVE.L    -(A0),D0
 2D20                             MOVE.L    -(A0),-(A6)
 536F 696E                        SUBQ.W    #$1,$696E(A7)
 204D                             MOVE.L    A5,A0
 5020                             ADDQ.B    #$0,-(A0)
 3235 0000                        MOVE.W    $00(A5,D0.W),D1
 4472 6F69                        NEG.W     $6F(A2,A4.W)
 7465                             MOVEQ     #$65,D2
 2020                             MOVE.L    -(A0),D0
 2D20                             MOVE.L    -(A0),-(A6)
 4162                             Invalid
 616E                             BSR       $0000571C
 646F                             BCC       $0000571F
 6E6E                             BGT       $00005720
 6572                             BCS       $00005726
 206C 6520                        MOVE.L    $6520(A4),A0
 636F                             BLS       $00005729
 6D62                             BLT       $0000571E
 6174                             BSR       $00005732
 0000 0053                        OR.B      #$53,D0
 6F6E                             BLE       $00005732
 6963                             BVS       $00005729
 2075 7469                        MOVE.L    $74(A5,A4.W),A0
 6C69                             BGE       $00005735
 7365                             MOVEQ     #$65,D1
 2053                             MOVE.L    (A3),A0
 6F69                             BLE       $0000573B
 6E21                             BGT       $000056F5
 0053 6F6E                        OR.W      #$6F6E,(A3)
 6963                             BVS       $0000573D
 2067                             MOVE.L    -(A7),A0
 6167                             BSR       $00005745
 6E65                             BGT       $00005745
 2033 3030                        MOVE.L    $30(A3,D0.L),D0
 2070 7621                        MOVE.L    $76(A0,A0.W),A0
 0053 6861                        OR.W      #$6861,(A3)
 646F                             BCC       $0000575D
 7720                             MOVEQ     #$20,D3
 4174                             Invalid
 7461                             MOVEQ     #$61,D2
 7175                             MOVEQ     #$75,D0
 6521                             BCS       $00005719
 0053 6F6E                        OR.W      #$6F6E,(A3)
 6963                             BVS       $00005761
 2070 6572                        MOVE.L    $65(A0,D1.L),A0
 6420                             BCC       $00005724
 3132 3020                        MOVE.W    $30(A2,D0.W),-(A0)
 7076                             MOVEQ     #$76,D0
 2100                             MOVE.L    D0,-(A0)
 0000 0000                        OR.B      #$00,D0
 0000 0000                        OR.B      #$00,D0
 0000 0000                        OR.B      #$00,D0
 0000 0050                        OR.B      #$50,D0
 7620                             MOVEQ     #$20,D3
 536F 6E69                        SUBQ.W    #$1,$6E69(A7)
 6320                             BLS       $00005744
 3A20                             MOVE.W    -(A0),D5
 0000 504D                        OR.B      #$4D,D0
 2053                             MOVE.L    (A3),A0
 6F6E                             BLE       $0000579C
 6963                             BVS       $00005793
 203A 2000                        MOVE.L    $00007732(pc),D0
 0000 5076                        OR.B      #$76,D0
 2053                             MOVE.L    (A3),A0
 6861                             BVC       $0000579D
 646F                             BCC       $000057AD
 7720                             MOVEQ     #$20,D3
 3A20                             MOVE.W    -(A0),D5
 0000 0048                        OR.B      #$48,D0
 6175                             BSR       $000057BD
 7420                             MOVEQ     #$20,D2
 2020                             MOVE.L    -(A0),D0
 202D 2041                        MOVE.L    $2041(A5),D0
 7474                             MOVEQ     #$74,D2
 6171                             BSR       $000057C5
 7565                             MOVEQ     #$65,D2
 7200                             MOVEQ     #$00,D1
 0042 6173                        OR.W      #$6173,D2
 2020                             MOVE.L    -(A0),D0
 2020                             MOVE.L    -(A0),D0
 202D 2053                        MOVE.L    $2053(A5),D0
 6163                             BSR       $000057C9
 7269                             MOVEQ     #$69,D1
 6669                             BNE       $000057D3
 6365                             BLS       $000057D1
 204D                             MOVE.L    A5,A0
 5020                             ADDQ.B    #$0,-(A0)
 3735 0000                        MOVE.W    $00(A5,D0.W),-(A3)
 4761                             Invalid
 7563                             MOVEQ     #$63,D2
 6865                             BVC       $000057DF
 2020                             MOVE.L    -(A0),D0
 2D20                             MOVE.L    -(A0),-(A6)
 536F 696E                        SUBQ.W    #$1,$696E(A7)
 204D                             MOVE.L    A5,A0
 5020                             ADDQ.B    #$0,-(A0)
 3235 0000                        MOVE.W    $00(A5,D0.W),D1
 4472 6F69                        NEG.W     $6F(A2,A4.W)
 7465                             MOVEQ     #$65,D2
 2020                             MOVE.L    -(A0),D0
 2D20                             MOVE.L    -(A0),-(A6)
 4162                             Invalid
 616E                             BSR       $00005806
 646F                             BCC       $00005809
 6E6E                             BGT       $0000580A
 6572                             BCS       $00005810
 206C 6520                        MOVE.L    $6520(A4),A0
 636F                             BLS       $00005813
 6D62                             BLT       $00005808
 6174                             BSR       $0000581C
 0000 0053                        OR.B      #$53,D0
 6861                             BVC       $0000580F
 646F                             BCC       $0000581F
 7720                             MOVEQ     #$20,D3
 6761                             BEQ       $00005815
 676E                             BEQ       $00005824
 6520                             BCS       $000057D8
 6C65                             BGE       $0000581F
 2063                             MOVE.L    -(A3),A0
 6F6D                             BLE       $0000582B
 6261                             BHI       $00005821
 7421                             MOVEQ     #$21,D2
 0000 0000                        OR.B      #$00,D0
 0000 0000                        OR.B      #$00,D0
 0000 0000                        OR.B      #$00,D0
 0000 0000                        OR.B      #$00,D0
 5076 2053                        ADDQ.W    #$0,$20(A6,A1.L)
 6F6E                             BLE       $00005846
 6963                             BVS       $0000583D
 203A 2000                        MOVE.L    $000077DC(pc),D0
 0050 4D20                        OR.W      #$4D20,(A0)
 536F 6E69                        SUBQ.W    #$1,$6E69(A7)
 6320                             BLS       $00005808
 3A20                             MOVE.W    -(A0),D5
 0000 0050                        OR.B      #$50,D0
 7620                             MOVEQ     #$20,D3
 5368 6164                        SUBQ.W    #$1,$6164(A0)
 6F77                             BLE       $0000586D
 203A 2000                        MOVE.L    $000077F8(pc),D0
 0000 4861                        OR.B      #$61,D0
 7574                             MOVEQ     #$74,D2
 2020                             MOVE.L    -(A0),D0
 2020                             MOVE.L    -(A0),D0
 2D20                             MOVE.L    -(A0),-(A6)
 4174                             Invalid
 7461                             MOVEQ     #$61,D2
 7175                             MOVEQ     #$75,D0
 6572                             BCS       $00005880
 0000 4261                        OR.B      #$61,D0
 7320                             MOVEQ     #$20,D1
 2020                             MOVE.L    -(A0),D0
 2020                             MOVE.L    -(A0),D0
 2D20                             MOVE.L    -(A0),-(A6)
 5361                             SUBQ.W    #$1,-(A1)
 6372                             BLS       $00005890
 6966                             BVS       $00005886
 6963                             BVS       $00005885
 6520                             BCS       $00005844
 4D50                             Invalid
 2037 3500                        MOVE.L    $35(A7,D0.W),D0
 0047 6175                        OR.W      #$6175,D7
 6368                             BLS       $00005898
 6520                             BCS       $00005852
 202D 2053                        MOVE.L    $2053(A5),D0
 6F69                             BLE       $000058A1
 6E20                             BGT       $0000585A
 4D50                             Invalid
 2032 3500                        MOVE.L    $35(A2,D0.W),D0
 0044 726F                        OR.W      #$726F,D4
 6974                             BVS       $000058BA
 6520                             BCS       $00005868
 202D 2041                        MOVE.L    $2041(A5),D0
 6261                             BHI       $000058AF
 6E64                             BGT       $000058B4
 6F6E                             BLE       $000058C0
 6E65                             BGT       $000058B9
 7220                             MOVEQ     #$20,D1
 6C65                             BGE       $000058BD
 2063                             MOVE.L    -(A3),A0
 6F6D                             BLE       $000058C9
 6261                             BHI       $000058BF
 7400                             MOVEQ     #$00,D2
